(lp0
S'pantheon,_rome'
p1
aS'william_j._brennan,_jr.'
p2
aS'anarchy,_state,_and_utopia'
p3
aS'annunciation_(van_eyck,_washington)'
p4
aS'absalom,_absalom!'
p5
aS'anthony_giddens,_baron_giddens'
p6
aS'alfred,_lord_tennyson'
p7
aS'arthur_wellesley,_1st_duke_of_wellington'
p8
aS'ducal_palace,_mantua'
p9
aS'cartagena,_colombia'
p10
aS'cry,_the_beloved_country'
p11
aS'camillo_benso,_count_of_cavour'
p12
aS'banqueting_house,_whitehall'
p13
aS'bartleby,_the_scrivener'
p14
aS'john_forbes_nash,_jr.'
p15
aS'joseph_lister,_1st_baron_lister'
p16
aS'nude_descending_a_staircase,_no._2'
p17
aS'the_general_theory_of_employment,_interest_and_money'
p18
aS'the_lion,_the_witch_and_the_wardrobe'
p19
aS'toccata_and_fugue_in_d_minor,_bwv_565'
p20
aS'the_life_and_opinions_of_tristram_shandy,_gentleman'
p21
aS'thebes,_greece'
p22
aS'mary,_queen_of_scots'
p23
aS'yvain,_the_knight_of_the_lion'
p24
aS'string_quartets,_op._76_(haydn)'
p25
aS'sickle_cell_anemia,_a_molecular_disease'
p26
aS'string_quartets,_op._20_(haydn)'
p27
aS'henry_cabot_lodge,_jr.'
p28
aS'va,_pensiero'
p29
a.