(dp0
S'4_vesta'
p1
(dp2
S'Canada'
p3
S'1'
p4
sS'Saturnalia'
p5
g4
sS'Sun'
p6
S'5'
p7
sS'datum'
p8
S'4'
p9
sS'month'
p10
g4
sS'mantle'
p11
S'3'
p12
sS'spacecraft'
p13
S'9'
p14
sS'debris'
p15
g4
sS'disk'
p16
g4
sS'flyby'
p17
g4
sS'Observatoire'
p18
g4
sS'crater'
p19
S'26'
p20
sS'Rheasilvia'
p21
S'11'
p22
sS'program'
p23
S'2'
p24
sS'Minucia'
p25
g24
sS'atlas'
p26
g4
sS'G.'
p27
g4
sS'geology'
p28
g24
sS'perihelion'
p29
g24
sS'trough'
p30
S'6'
p31
sS'Vesta'
p32
S'109'
p33
sS'Moon'
p34
g12
sS'condition'
p35
g4
sS'brecciation'
p36
g4
sS'team'
p37
g12
sS'nasa/dlr'
p38
g4
sS'rate'
p39
g24
sS'Wilhelm'
p40
g4
sS'video'
p41
g4
sS'section'
p42
g4
sS'protoplanet'
p43
g9
sS'crust'
p44
g7
sS'Troughs'
p45
g4
sS'volatile'
p46
g4
sS'Cygnus'
p47
g4
sS'public'
p48
g4
sS'contrast'
p49
g4
sS'body'
p50
g31
sS'Yarkovsky'
p51
g4
sS'degree'
p52
g24
sS'component'
p53
g9
sS'water'
p54
g4
sS'English'
p55
g24
sS'z\xc3\xa0osh\xc3\xa9nx\xc4\xabng'
p56
g4
sS'search'
p57
g24
sS'study'
p58
g12
sS'Remus'
p59
g4
sS'credit'
p60
g4
sS'survey'
p61
g4
sS'formation'
p62
g12
sS'honor'
p63
g4
sS'diameter'
p64
S'7'
p65
sS'Group'
p66
g4
sS'family'
p67
g4
sS'vir'
p68
g4
sS'Friedrich'
p69
g4
sS'howardite'
p70
g24
sS'achondrite'
p71
g4
sS'use'
p72
g12
sS'eye'
p73
g24
sS'August'
p74
g4
sS'June'
p75
g4
sS'eleven'
p76
g24
sS'camera'
p77
g24
sS'overhead'
p78
g4
sS'vehicle'
p79
g4
sS'today'
p80
g4
sS'olivine'
p81
g7
sS'altar'
p82
g4
sS'visibility'
p83
g4
sS'Gould'
p84
g4
sS'Olbers'
p85
g9
sS'sample'
p86
g9
sS'none'
p87
g24
sS'Toulouse'
p88
g4
sS'hour'
p89
g4
sS'science'
p90
g4
sS'UCLA'
p91
g4
sS'longitude'
p92
g4
sS'Johann'
p93
g4
sS'\xce\xb5\xcf\x83\xcf\x84\xce\xaf\xce\xb1'
p94
g4
sS'Keck'
p95
g4
sS'example'
p96
g4
sS'history'
p97
g12
sS'calculation'
p98
g4
sS'autumn'
p99
g4
sS'collision'
p100
g12
sS'palla'
p101
g4
sS'ascension'
p102
g4
sS'prograde'
p103
g4
sS'information'
p104
g12
sS'Calpurnia'
p105
g24
sS'winter'
p106
g24
sS'tilt'
p107
g4
sS'range'
p108
g4
sS'Chasma'
p109
g4
sS'profile'
p110
g24
sS'map'
p111
g24
sS'product'
p112
g4
sS'variant'
p113
g4
sS'mapping'
p114
g24
sS'collection'
p115
g4
sS'Roman'
p116
g4
sS'fc'
p117
g4
sS'Wild'
p118
g4
sS'spectrometer'
p119
g4
sS'1880'
p120
g4
sS'imagery'
p121
g4
sS'elongation'
p122
g4
sS'element'
p123
g4
sS'deposit'
p124
g4
sS'Greece'
p125
g4
sS'order'
p126
g4
sS'Herschel'
p127
g4
sS'insight'
p128
g24
sS'mission'
p129
S'11'
p130
sS'meter'
p131
g4
sS'MAOSEP'
p132
g4
sS'presence'
p133
g24
sS'scientist'
p134
g7
sS'existence'
p135
g4
sS'Benjamin'
p136
g4
sS'group'
p137
g4
sS'fit'
p138
g4
sS'Tethys'
p139
g4
sS'c'
p140
g9
sS'inclusion'
p141
g4
sS'concavity'
p142
g4
sS'Greeks'
p143
g4
sS'image'
p144
g9
sS'Observatory'
p145
g24
sS'fragment'
p146
S'8'
p147
sS'material'
p148
g65
sS'Regolith'
p149
g4
sS'1950'
p150
g4
sS'feature'
p151
g65
sS'rotation'
p152
g12
sS'name'
p153
S'10'
p154
sS'designation'
p155
g12
sS'brightness'
p156
g4
sS'mathematician'
p157
g4
sS'magnitude'
p158
g31
sS'rock'
p159
g4
sS'photometry'
p160
g4
sS'mean'
p161
g12
sS'Schr\xc3\xb6ter'
p162
g4
sS'telescope'
p163
g24
sS'gamma-ray'
p164
g4
sS'measurement'
p165
g4
sS'dawn'
p166
S'12'
p167
sS'Planitia'
p168
g4
sS'event'
p169
g4
sS'Discovery'
p170
g24
sS'category'
p171
g4
sS'space'
p172
g24
sS'\xc3\x97'
p173
g4
sS'William'
p174
g4
sS'China'
p175
g4
sS'size'
p176
g9
sS'Varronilla'
p177
g4
sS'belief'
p178
g4
sS'reason'
p179
g4
sS'faulting'
p180
g4
sS'Fossa'
p181
g12
sS'estimate'
p182
g65
sS'temperature'
p183
g24
sS'eucrite'
p184
g24
sS'September'
p185
g12
sS'hearth-god'
p186
g4
sS'thing'
p187
g4
sS'NASA'
p188
g14
sS'signature'
p189
g4
sS'origin'
p190
g12
sS'Working'
p191
g4
sS'Cartographic'
p192
g4
sS'researcher'
p193
g4
sS'Apthorp'
p194
g4
sS'number'
p195
g31
sS'Hertz'
p196
g4
sS'one'
p197
g4
sS'Program'
p198
g4
sS'quality'
p199
g4
sS'1879'
p200
g4
sS'perturbation'
p201
g24
sS'publication'
p202
g4
sS'system'
p203
g7
sS'priority'
p204
g4
sS'west'
p205
g4
sS'Numisia'
p206
g4
sS'season'
p207
g24
sS'part'
p208
g24
sS'Feralia'
p209
g4
sS'distance'
p210
g24
sS'kind'
p211
g4
sS'target'
p212
g24
sS'IRTF'
p213
g4
sS'matter'
p214
g4
sS'Canyon'
p215
g4
sS'fly-by'
p216
g4
sS'iron'
p217
g12
sS'design'
p218
g4
sS'sao'
p219
g4
sS'regolith'
p220
g24
sS'disambiguation'
p221
g4
sS'Pickering'
p222
g4
sS'manner'
p223
g4
sS'Capricornus'
p224
g4
sS'albedo'
p225
g4
sS'bombardment'
p226
g4
sS'nanophase'
p227
g4
sS'min'
p228
g4
sS'gravity'
p229
g12
sS'majority'
p230
g24
sS'Germany'
p231
g4
sS'fracture'
p232
g4
sS'finding'
p233
g4
sS'detector'
p234
g4
sS'Divalia'
p235
g24
sS'trace'
p236
g4
sS'Itokawa'
p237
g24
sS'object'
p238
g12
sS'degassing'
p239
g4
sS'Vestan'
p240
g4
sS'Postumia'
p241
g4
sS'plan'
p242
g4
sS'letter'
p243
g24
sS'class'
p244
g4
sS'observation'
p245
g7
sS'flow'
p246
g4
sS'drive'
p247
g4
sS'Romulus'
p248
g4
sS'Cornelia'
p249
g24
sS'Earth'
p250
g12
sS'fact'
p251
g24
sS'rheasilvium'
p252
g4
sS'Union'
p253
g24
sS'Agency'
p254
g4
sS'Sky'
p255
g4
sS'Coordinates'
p256
g4
sS'impact'
p257
g14
sS'protrusion'
p258
g4
sS'occultation'
p259
g4
sS'kilometer'
p260
g24
sS'meteorite'
p261
S'11'
p262
sS'Solar'
p263
g147
sS'Veneneia'
p264
g7
sS'circle'
p265
g24
sS'equilibrium'
p266
g24
sS'means'
p267
g4
sS'Regio'
p268
g24
sS'IAU'
p269
g65
sS'conjunction'
p270
g4
sS'Soviet'
p271
g4
sS'July'
p272
g7
sS'evolution'
p273
g4
sS'h'
p274
g24
sS'shape'
p275
g7
sS'summary'
p276
g4
sS'view'
p277
g4
sS'set'
p278
g4
sS'Funding'
p279
g4
sS'observer'
p280
g4
sS'excavation'
p281
g4
sS'terrain'
p282
g7
sS'j2'
p283
g4
sS'France'
p284
g4
sS'result'
p285
g4
sS'Grand'
p286
g4
sS'Cetus'
p287
g4
sS'constellation'
p288
g7
sS'dwarf'
p289
g9
sS'Pallas'
p290
g31
sS'review'
p291
g4
sS'Harvard'
p292
g4
sS'cooperation'
p293
g4
sS'\xc2\xb0'
p294
g31
sS'vaporization'
p295
g4
sS'approach'
p296
g24
sS'discovery'
p297
g31
sS'arrival'
p298
g12
sS'Rotational'
p299
g4
sS'parent'
p300
g4
sS'slingshot'
p301
g4
sS'opposition'
p302
g31
sS'March'
p303
g12
sS'goddess'
p304
g12
sS'country'
p305
g4
sS'region'
p306
g7
sS'uncertainty'
p307
g24
sS'comet'
p308
g4
sS'Dawn'
p309
g65
sS'point'
p310
g4
sS'low-altitude'
p311
g24
sS'ca'
p312
g4
sS'period'
p313
g4
sS'coincidence'
p314
g4
sS'pole'
p315
g14
sS'Licinia'
p316
g4
sS'belt'
p317
g65
sS'Electric'
p318
g4
sS'basis'
p319
g4
sS'addition'
p320
g4
sS'trajectory'
p321
g4
sS'Optical'
p322
g4
sS'Carl'
p323
g4
sS'basin'
p324
g4
sS'engine'
p325
g24
sS'direction'
p326
g4
sS'nickel'
p327
g4
sS'\xe2\x91\xa3'
p328
g12
sS'fire'
p329
g4
sS'precision'
p330
g4
sS'gap'
p331
g24
sS'HED'
p332
g9
sS'determination'
p333
g4
sS'case'
p334
g4
sS'exception'
p335
g4
sS'conception'
p336
g4
sS'Astronomical'
p337
g4
sS'appearance'
p338
g4
sS'value'
p339
g4
sS'meridian'
p340
g9
sS'pace'
p341
g4
sS'College'
p342
g4
sS'mythology'
p343
g4
sS'overtaking'
p344
g4
sS'layer'
p345
g4
sS'Italy'
p346
g4
sS'chondrite'
p347
g24
sS'century'
p348
g4
sS'equator'
p349
g4
sS'soil'
p350
g4
sS'site'
p351
g24
sS'surface'
p352
S'16'
p353
sS'rim'
p354
g4
sS'chasm'
p355
g4
sS'punctuation'
p356
g4
sS'radiation'
p357
g4
sS'complex'
p358
g4
sS'grand'
p359
g4
sS'composition'
p360
g9
sS'neutron'
p361
g4
sS'week'
p362
g4
sS'effect'
p363
g4
sS'binoculars'
p364
g24
sS'ion'
p365
g12
sS'hearth'
p366
g24
sS'center'
p367
g12
sS'analysis'
p368
g12
sS'States'
p369
g24
sS'mother'
p370
g4
sS'model'
p371
g4
sS'dimension'
p372
g24
sS'snowman'
p373
g4
sS'summer'
p374
g4
sS'United'
p375
g24
sS'gully'
p376
g24
sS'Marcia'
p377
g9
sS'photo'
p378
g4
sS'numbering'
p379
g4
sS'rest'
p380
g4
sS'Sunday'
p381
g4
sS'differentiation'
p382
g4
sS'speed'
p383
g4
sS'density'
p384
g4
sS'sky'
p385
g9
sS'Gauss'
p386
g9
sS'source'
p387
g4
sS'Kirkwood'
p388
g24
sS'location'
p389
g12
sS'XXVI'
p390
g4
sS'Hubble'
p391
g12
sS'Pakistan'
p392
g4
sS'dess'
p393
g4
sS'interior'
p394
g12
sS'regio'
p395
g4
sS'intersection'
p396
g4
sS'Claudia'
p397
g4
sS'melting'
p398
g4
sS'remnant'
p399
g4
sS'quadrangle'
p400
g4
sS'night'
p401
g24
sS'Ithaca'
p402
g4
sS'right'
p403
g4
sS'spring'
p404
g4
sS'System'
p405
g65
sS'astronomer'
p406
g12
sS'spheroid'
p407
g4
sS'Mars'
p408
g24
sS'International'
p409
g4
sS'infall'
p410
g4
sS'planetesimal'
p411
g4
sS'orbiter'
p412
g4
sS'vestan'
p413
g4
sS'Leo'
p414
g4
sS'Hemisphere'
p415
g4
sS'core'
p416
g24
sS'process'
p417
g24
sS'm/pixel'
p418
g9
sS'Thetis'
p419
g4
sS'equivalent'
p420
g4
sS'pressure'
p421
g4
sS'jpl/nasa'
p422
g4
sS'oh'
p423
g4
sS'December'
p424
g24
sS'magazine'
p425
g4
sS'H.'
p426
g4
sS'act'
p427
g4
sS'pollution'
p428
g24
sS'facility'
p429
g4
sS'Propulsion'
p430
g4
sS'E.C.'
p431
g4
sS'year'
p432
S'14'
p433
sS'Virgo'
p434
g24
sS'realisation'
p435
g4
sS'Arete'
p436
g24
sS'Hestia'
p437
g12
sS'compression'
p438
g4
sS'1980'
p439
g4
sS'area'
p440
g24
sS'question'
p441
g4
sS'sunlight'
p442
g4
sS'hed'
p443
g4
sS'width'
p444
g4
sS'asteroid'
p445
S'37'
p446
sS'series'
p447
g12
sS'Hans'
p448
g4
sS'interferometry'
p449
g4
sS'north'
p450
g4
sS'form'
p451
g24
sS'diogenite'
p452
g24
sS'volume'
p453
g9
sS'hemisphere'
p454
g7
sS'line'
p455
g4
sS'Resolution'
p456
g4
sS'proposal'
p457
g12
sS'Telescope'
p458
g12
sS'lobate'
p459
g4
sS'characteristic'
p460
g4
sS'maximum'
p461
g4
sS'planet'
p462
S'14'
p463
sS'exploration'
p464
g12
sS'agora'
p465
g24
sS'Kollaa'
p466
g4
sS'problem'
p467
g4
sS'piece'
p468
g4
sS'website'
p469
g24
sS'Space'
p470
g24
sS'orbit'
p471
S'14'
p472
sS'evidence'
p473
g4
sS'au'
p474
g4
sS'km'
p475
S'10'
p476
sS'home'
p477
g24
sS'%'
p478
g31
sS'floor'
p479
g24
sS'May'
p480
g9
sS'telemetry'
p481
g4
sS'detail'
p482
g24
sS'field'
p483
g24
sS'Heinrich'
p484
g24
sS'February'
p485
g4
sS'star'
p486
g24
sS'juno'
p487
g24
sS'symbol'
p488
g31
sS'parenthesis'
p489
g4
sS'variation'
p490
g4
sS'peak'
p491
g24
sS'ESA'
p492
g9
sS'structure'
p493
g4
sS'1802'
p494
g4
sS'curve'
p495
g4
sS'Mission'
p496
g4
sS'Ceres'
p497
S'15'
p498
sS'Radar'
p499
g4
sS'depth'
p500
g4
sS'declination'
p501
g4
sS'mass'
p502
g147
sS'graben'
p503
g4
sS'penetrator'
p504
g4
sS'time'
p505
g31
ssS'1812_overture'
p506
(dp507
S'Mercury'
p508
g24
sS'Antal'
p509
g24
sS'dance'
p510
g4
sS'resistance'
p511
g4
sS'Saint'
p512
g4
sS'battle'
p513
g31
sS'Indiana'
p514
g4
sS'Philharmonic'
p515
g4
sS'Swingle'
p516
g4
sS'passage'
p517
g24
sS'Ronald'
p518
g4
sS'Logistics'
p519
g4
sS'string'
p520
g4
sS'Military'
p521
g4
sS'Troparion'
p522
g4
sS'Beethoven'
p523
g4
sS'Presence'
p524
g4
sS'Barnett'
p525
g4
sS'gun'
p526
g12
sS'Paul'
p527
g4
sS'Dor\xc3\xa1ti'
p528
g24
sS'logistics'
p529
g4
sS'revolution'
p530
g24
sS'force'
p531
g65
sS'Festival'
p532
g4
sS'Tchaikovsky'
p533
S'10'
p534
sS'carillon'
p535
g4
sS'folk'
p536
g9
sS'hymn'
p537
g24
sS'Orthodox'
p538
g4
sS'Kunzel'
p539
g24
sS'assistance'
p540
g4
sS'orchestra'
p541
g12
sS'anniversary'
p542
g24
sS'Niemen'
p543
g4
sS'version'
p544
g12
sS'appeal'
p545
g4
sS'estate'
p546
g4
sS'Ormandy'
p547
g4
sS'\xd1\x80\xd1\x83\xd1\x81\xd1\x8c'
p548
g4
sS'leitmotif'
p549
g4
sS'studio'
p550
g4
sS'change'
p551
g4
sS'celebration'
p552
g9
sS'Spelman'
p553
g4
sS'soldier'
p554
g4
sS'musicologist'
p555
g4
sS'mentor'
p556
g4
sS'honor'
p557
g4
sS'love'
p558
g4
sS'campaign'
p559
g24
sS'Robert'
p560
g4
sS'composer'
p561
g12
sS'total'
p562
g4
sS'use'
p563
g12
sS'stream'
p564
g4
sS'army'
p565
g4
sS'June'
p566
g24
sS'eleven'
p567
g4
sS'music'
p568
g31
sS'Russian'
p569
g4
sS'panel'
p570
g4
sS'\xd1\x81\xd0\xbb\xd0\xb0\xd0\xb2\xd1\x8c\xd1\x81\xd1\x8f'
p571
g4
sS'preparation'
p572
g4
sS'October'
p573
g24
sS'Erich'
p574
g4
sS'Opera'
p575
g4
sS'musician'
p576
g4
sS'Pyotr'
p577
g4
sS'downtown'
p578
g4
sS'Time'
p579
g4
sS'op\xc3\xa9ra'
p580
g4
sS'\xd0\xa1\xd0\xbb\xd0\xb0\xd0\xb2\xd1\x8c\xd1\x81\xd1\x8f'
p581
g4
sS'following'
p582
g4
sS'gunfire'
p583
g4
sS'history'
p584
g4
sS'patron'
p585
g4
sS'La'
p586
g31
sS'artillery'
p587
g12
sS'Orchestra'
p588
g65
sS'depiction'
p589
g4
sS'Ilyich'
p590
g4
sS'Symphony'
p591
g24
sS'Lord'
p592
g12
sS'organizer'
p593
g4
sS'end'
p594
g4
sS'winter'
p595
g12
sS'desperation'
p596
g4
sS'arrangement'
p597
g24
sS'drummer'
p598
g4
sS'78rpm'
p599
g4
sS'gate'
p600
g24
sS'Sharples'
p601
g4
sS'A'
p602
g4
sS'recording'
p603
S'12'
p604
sS'Dorati'
p605
g12
sS'Rodina'
p606
g4
sS'lag'
p607
g4
sS'Ippolit'
p608
g4
sS'catalog'
p609
g4
sS'Deems'
p610
g24
sS'Yale'
p611
g4
sS'invasion'
p612
g12
sS'1880'
p613
g7
sS'attempt'
p614
g4
sS'tsar'
p615
g24
sS'skirmish'
p616
g4
sS'wind'
p617
g4
sS'quadrophony'
p618
g4
sS'\xd1\x81\xd0\xb2\xd1\x8f\xd1\x82\xd0\xb0\xd1\x8f'
p619
g4
sS'performance'
p620
g9
sS'fidelity'
p621
g4
sS'March'
p622
g24
sS'Carnegie'
p623
g4
sS'crew'
p624
g4
sS'Haven'
p625
g4
sS'Stereo'
p626
g4
sS'return'
p627
g4
sS'fragment'
p628
g4
sS'practice'
p629
g4
sS'band'
p630
g7
sS'victory'
p631
g9
sS'rock'
p632
g24
sS'quarter'
p633
g4
sS'side'
p634
g7
sS'motherland'
p635
g4
sS'square'
p636
g4
sS'Mills'
p637
g4
sS'Saviour'
p638
g24
sS'Minneapolis'
p639
g4
sS'year'
p640
g12
sS'cathedral'
p641
g31
sS'Save'
p642
g12
sS'album'
p643
g24
sS'August'
p644
g4
sS'Holy'
p645
g24
sS'safety'
p646
g12
sS'Czars'
p647
g4
sS'1879'
p648
g4
sS'Napoleon'
p649
g65
sS'effect'
p650
g4
sS'plea'
p651
g24
sS'Fidelity'
p652
g4
sS'Arm\xc3\xa9e'
p653
g24
sS'advance'
p654
g4
sS'Point'
p655
g4
sS'September'
p656
g24
sS'National'
p657
g4
sS'Texan'
p658
g4
sS'place'
p659
g4
sS'Oklahoma'
p660
g4
sS'Royal'
p661
g24
sS'scene'
p662
g4
sS'Exhibition'
p663
g24
sS'cossack'
p664
g4
sS'size'
p665
g24
sS'city'
p666
g24
sS'Cozy'
p667
g4
sS'Eastern'
p668
g4
sS'festival'
p669
g9
sS'Academy'
p670
g4
sS'scheme'
p671
g4
sS'friend'
p672
g4
sS'Alexander'
p673
g9
sS'festivity'
p674
g4
sS'Overture'
p675
g147
sS'way'
p676
g24
sS'Mozart'
p677
g4
sS'Tsar'
p678
g7
sS'part'
p679
g12
sS'accompaniment'
p680
g4
sS'Victory'
p681
g4
sS'accordance'
p682
g4
sS'youth'
p683
g4
sS'firework'
p684
g24
sS'store'
p685
g4
sS'coronation'
p686
g4
sS'Tabernacle'
p687
g4
sS'gathering'
p688
g4
sS'God'
p689
g9
sS'tanus'
p690
g4
sS'Philadelphia'
p691
g4
sS'Synod'
p692
g4
sS'Forge'
p693
g4
sS'Valley'
p694
g4
sS'instrumentation'
p695
g4
sS'transcription'
p696
g4
sS'Albert'
p697
g4
sS'switch'
p698
g4
sS'note'
p699
g4
sS'Band'
p700
g4
sS'commentary'
p701
g24
sS'Hall'
p702
g24
sS'Thy'
p703
g12
sS'track'
p704
g4
sS'plan'
p705
g24
sS'grave'
p706
g4
sS'Motherland'
p707
g4
sS'stereo'
p708
g4
sS'placement'
p709
g4
sS'Bend'
p710
g4
sS'anthem'
p711
g31
sS'Dyke'
p712
g4
sS'fact'
p713
g4
sS'shot'
p714
S'13'
p715
sS'Anthem'
p716
g24
sS'merit'
p717
g4
sS'planning'
p718
g4
sS'melody'
p719
g24
sS'Powell'
p720
g4
sS'ground'
p721
g24
sS'completion'
p722
g4
sS'pastoral'
p723
g4
sS'title'
p724
g4
sS'implementation'
p725
g4
sS'French'
p726
g12
sS'Records'
p727
g4
sS'theme'
p728
g4
sS'York'
p729
g4
sS'enthusiasm'
p730
g4
sS'Marseillaise'
p731
g31
sS'counterpoint'
p732
g24
sS'mixture'
p733
g4
sS'permission'
p734
g4
sS'cannon'
p735
S'13'
p736
sS'freezing'
p737
g4
sS'River'
p738
g4
sS'Brass'
p739
g4
sS'enemy'
p740
g4
sS'resource'
p741
g4
sS'artist'
p742
g4
sS'Alwyn'
p743
g4
sS'J.'
p744
g4
sS'Buketoff'
p745
g4
sS'Op.'
p746
g4
sS'art'
p747
g12
sS'freeze'
p748
g4
sS'famine'
p749
g4
sS'edition'
p750
g12
sS'defense'
p751
g24
sS'Performance'
p752
g4
sS'project'
p753
g24
sS'Mikhail'
p754
g24
sS'Nadezhda'
p755
g4
sS'Berlin'
p756
g4
sS'score'
p757
g65
sS'July'
p758
g4
sS'approach'
p759
g24
sS'tent'
p760
g24
sS'King'
p761
g4
sS'opening'
p762
g4
sS'U.S.'
p763
g4
sS'dedication'
p764
g4
sS'Borodino'
p765
g9
sS'country'
p766
g4
sS'Laura'
p767
g4
sS'tour'
p768
g4
sS'volley'
p769
g4
sS'Christ'
p770
g24
sS'point'
p771
g4
sS'village'
p772
g24
sS'Riverside'
p773
g4
sS'addition'
p774
g4
sS'west'
p775
g24
sS'Italien'
p776
g24
sS'Connecticut'
p777
g24
sS'commission'
p778
g4
sS'warmth'
p779
g4
sS'muzzleloading'
p780
g4
sS'fire'
p781
g24
sS'hmv'
p782
g4
sS'Wellington'
p783
g4
sS'overture'
p784
S'15'
p785
sS'Allied'
p786
g4
sS'repetition'
p787
g4
sS'spirit'
p788
g4
sS'sound'
p789
g4
sS'Kenneth'
p790
g4
sS'plain'
p791
g4
sS'appearance'
p792
g4
sS'General'
p793
g4
sS'distress'
p794
g4
sS'Church'
p795
g4
sS'supply'
p796
g4
sS'April'
p797
g4
sS'motif'
p798
g4
sS'ringing'
p799
g4
sS'century'
p800
g4
sS'von'
p801
g4
sS'Imperial'
p802
g4
sS'strain'
p803
g24
sS'obstacle'
p804
g4
sS'Vorot'
p805
g24
sS'CBS'
p806
g4
sS'anachronism'
p807
g4
sS'viola'
p808
g4
sS'composition'
p809
g4
sS'conflict'
p810
g4
sS'week'
p811
g4
sS'Rockefeller'
p812
g4
sS'hand'
p813
g24
sS'II'
p814
g24
sS'moment'
p815
g4
sS'tune'
p816
g4
sS'States'
p817
g4
sS'temperature'
p818
g4
sS'Kutuzov'
p819
g4
sS'Memorial'
p820
g24
sS'United'
p821
g4
sS'birth'
p822
g4
sS'Landon'
p823
g4
sS'typhus'
p824
g4
sS'Lithuania'
p825
g4
sS'zvon'
p826
g12
sS'Glinka'
p827
g4
sS'earshot'
p828
g4
sS'blow'
p829
g4
sS'masse'
p830
g4
sS'impetus'
p831
g4
sS'Russians'
p832
g24
sS'hint'
p833
g24
sS'legion'
p834
g4
sS'assassination'
p835
g4
sS'cue'
p836
g24
sS'Performances'
p837
g4
sS'Recording'
p838
g4
sS'Grande'
p839
g24
sS'background'
p840
g4
sS'capitulation'
p841
g4
sS'retreat'
p842
g24
sS'Nikolai'
p843
g4
sS'Cincinnati'
p844
g4
sS'Decca'
p845
g24
sS'chorus'
p846
g4
sS'London'
p847
g24
sS'Army'
p848
g7
sS'West'
p849
g4
sS'church'
p850
g24
sS'Commission'
p851
g4
sS'deliverance'
p852
g24
sS'New'
p853
g24
sS'fanfare'
p854
g4
sS'Eugene'
p855
g4
sS'Life'
p856
g4
sS'Moscow'
p857
S'13'
p858
sS'People'
p859
g12
sS'Singers'
p860
g4
sS'indication'
p861
g4
sS'one-tenth'
p862
g4
sS'burn'
p863
g24
sS'O'
p864
g12
sS'rus'
p865
g4
sS'Russia'
p866
g9
sS'stage'
p867
g4
sS'Taylor'
p868
g24
sS'Igor'
p869
g4
sS'December'
p870
g4
sS'industry'
p871
g24
sS'bicentennial'
p872
g4
sS'stand'
p873
g4
sS'intervention'
p874
g4
sS'span'
p875
g4
sS'people'
p876
g31
sS'custom'
p877
g4
sS'structure'
p878
g4
sS'fraction'
p879
g4
sS'November'
p880
g4
sS'Meck'
p881
g4
sS'line'
p882
g4
sS'glory'
p883
g24
sS'Capriccio'
p884
g24
sS'cello'
p885
g4
sS'piece'
p886
S'11'
p887
sS'display'
p888
g4
sS'Petersburg'
p889
g4
sS'bell'
p890
g147
sS'USA'
p891
g4
sS'Cross'
p892
g4
sS'prayer'
p893
g24
sS'work'
p894
g9
sS'casualty'
p895
g4
sS'conductor'
p896
g12
sS'May'
p897
g4
sS'Mormon'
p898
g4
sS'peace'
p899
g4
sS'field'
p900
g4
sS'other'
p901
g4
sS'Bartlesville'
p902
g4
sS'semblance'
p903
g4
sS'finale'
p904
g12
sS'cappellum'
p905
g4
sS'precision'
p906
g12
sS'town'
p907
g4
sS'peal'
p908
g4
sS'U'
p909
g4
sS'brass'
p910
g12
sS'South'
p911
g4
sS'Choir'
p912
g4
sS'land'
p913
g4
sS'e'
p914
g4
sS'Al'
p915
g4
sS'Rubinstein'
p916
g4
sS'time'
p917
g65
sS'Carillon'
p918
g24
sS'Empire'
p919
g4
ssS"'pataphysics"
p920
(dp921
S'Canada'
p922
g4
sS'concept'
p923
g4
sS'similarity'
p924
g24
sS'month'
p925
g9
sS'crocodile'
p926
g4
sS'Buenos'
p927
g4
sS'Hidde'
p928
g4
sS'father'
p929
g4
sS'ta'
p930
g12
sS'Ir\xc3\xa9n\xc3\xa9e'
p931
g4
sS'appointment'
p932
g4
sS'Hancock'
p933
g4
sS'choice'
p934
g4
sS'Oulipo'
p935
g4
sS'Cahiers'
p936
g4
sS'Chico'
p937
g4
sS'scholar'
p938
g4
sS'level'
p939
g4
sS'undigestulator'
p940
g4
sS'Beaumont'
p941
g4
sS'solution'
p942
g4
sS'Esteban'
p943
g4
sS'Vilnius'
p944
g4
sS'Select'
p945
g4
sS'inutilious'
p946
g4
sS'Paintings'
p947
g4
sS'theory'
p948
g4
sS'Theatre'
p949
g4
sS'clock'
p950
g4
sS'assistance'
p951
g4
sS'method'
p952
g4
sS'Latis'
p953
g4
sS'degree'
p954
g24
sS'Vian'
p955
g4
sS'appendage'
p956
g4
sS'separation'
p957
g24
sS'instituto'
p958
g4
sS'conceit'
p959
g4
sS'study'
p960
g4
sS'automaton'
p961
g4
sS'Joan'
p962
g4
sS'Eug\xc3\xa8ne'
p963
g4
sS'Richmond'
p964
g4
sS'Rhode'
p965
g4
sS'follower'
p966
g4
sS'composer'
p967
g4
sS'total'
p968
g4
sS'singing'
p969
g24
sS'Europe'
p970
g4
sS'metaphor'
p971
g147
sS'comparison'
p972
g4
sS'musician'
p973
g4
sS'haha'
p974
g4
sS'chessboard'
p975
g4
sS'Roger'
p976
g24
sS'Time'
p977
g4
sS'Pataphors'
p978
g4
sS'word'
p979
g7
sS'science'
p980
g9
sS'work'
p981
g4
sS'era'
p982
g24
sS'following'
p983
g4
sS'example'
p984
g7
sS'history'
p985
g4
sS'Le'
p986
g4
sS'Mus\xc3\xa9e'
p987
g24
sS'bent'
p988
g4
sS'figure'
p989
g4
sS'process'
p990
g24
sS'Sable'
p991
g4
sS'Dutch'
p992
g4
sS'phrase'
p993
g4
sS'Peanuts'
p994
g4
sS'Raymond'
p995
g4
sS'machine'
p996
g12
sS'comedy'
p997
g4
sS'Queneau'
p998
g4
sg602
g4
sS'map'
p999
g4
sS'philosophy'
p1000
g4
sS'birthday'
p1001
g4
sS'curiosity'
p1002
g4
sS'date'
p1003
g12
sS'Rennes'
p1004
g4
sS'spelling'
p1005
g4
sS'Marcel'
p1006
g24
sS'element'
p1007
g4
sS'dream'
p1008
g4
sS'order'
p1009
g24
sS'origin'
p1010
g24
sS'interpretation'
p1011
g4
sS'hierarchy'
p1012
g4
sS'entity'
p1013
g4
sS'Situationist'
p1014
g4
sS'dough'
p1015
g4
sS'bosse-de-nage'
p1016
g4
sS'group'
p1017
g4
sS'Inamovable'
p1018
g4
sS'colleague'
p1019
g4
sS'Subsidia'
p1020
g4
sS'food'
p1021
g4
sS'Jorn'
p1022
g4
sS'practice'
p1023
g4
sS'band'
p1024
g4
sS'Works'
p1025
g4
sS'day'
p1026
g7
sS'rhetoric'
p1027
g4
sS'name'
p1028
g24
sS'\xc3\x89tienne'
p1029
g4
sS'Milan'
p1030
g4
sS'Ray'
p1031
g4
sS'week'
p1032
g4
sS'globe'
p1033
g4
sS'idea'
p1034
g24
sS'society'
p1035
g4
sS'meta'
p1036
g24
sS'year'
p1037
g24
sS'vulg'
p1038
g12
sS'event'
p1039
g4
sS'pataphor'
p1040
S'15'
p1041
sS'research'
p1042
g4
sS'etymology'
p1043
g4
sS'Aires'
p1044
g4
sS'reader'
p1045
g4
sS'print'
p1046
g4
sS'issue'
p1047
g4
sS'pun'
p1048
g9
sS'belief'
p1049
g4
sS'Phenakistascope'
p1050
g4
sS'patafiziko'
p1051
g4
sS'formation'
p1052
g4
sS'term'
p1053
g9
sS'definition'
p1054
g24
sS'language'
p1055
g4
sS'September'
p1056
g24
sS'virtuality'
p1057
g4
sS'Syzygistic'
p1058
g4
sS'scene'
p1059
g4
sS'Hugill'
p1060
g4
sS'1873'
p1061
g24
sS'fiction'
p1062
g24
sS'Boris'
p1063
g4
sS'city'
p1064
g12
sS'publication'
p1065
g4
sS'system'
p1066
g4
sS'Firesign'
p1067
g4
sS'assumption'
p1068
g24
sS'saint'
p1069
g4
sS'friend'
p1070
g4
sS'Fassio'
p1071
g4
sS'tool'
p1072
g4
sS'Oracle'
p1073
g4
sS'translation'
p1074
g4
sS'Ibicrates'
p1075
g4
sS'Anthony'
p1076
g4
sS'kind'
p1077
g4
sS'Enlarger'
p1078
g4
sS'dossier'
p1079
g4
sS'bee'
p1080
g4
sS'exhibit'
p1081
g24
sS'Chicago'
p1082
g4
sS'13th'
p1083
g4
sS'pastry'
p1084
g4
sS'Faustroll'
p1085
g4
sS'realm'
p1086
g4
sS'form'
p1087
g4
sS'illustr\xc3\xa9'
p1088
g4
sS'physique'
p1089
g12
sS'Schie'
p1090
g4
sS'e.p.'
p1091
g4
sS'Germany'
p1092
g4
sS'analogy'
p1093
g4
sS'subject'
p1094
g24
sS'play'
p1095
g24
sS'theatre'
p1096
g4
sS'centre'
p1097
g4
sS'object'
p1098
g24
sS'Heath'
p1099
g4
sS'device'
p1100
g4
sS'Ernst'
p1101
g4
sS'Harpo'
p1102
g4
sS'Jacques'
p1103
g4
sS'Julien'
p1104
g4
sS'Goldberg'
p1105
g4
sS'principle'
p1106
g4
sS'Asger'
p1107
g4
sS'Robinson'
p1108
g4
sS'impression'
p1109
g4
sS'show'
p1110
g4
sS'Paris'
p1111
g24
sS'text'
p1112
g4
sS'Tara'
p1113
g4
sS'pataphysician'
p1114
g12
sS'chandelier'
p1115
g4
sS'title'
p1116
g4
sS'occultation'
p1117
g4
sS'writer'
p1118
g24
sS'Mollet'
p1119
g4
sS'wikipedium'
p1120
g4
sS'Patam\xc3\xa9canique'
p1121
g24
sS'Netherlands'
p1122
g4
sS'notation'
p1123
g4
sS'Louis'
p1124
g4
sS'de'
p1125
g4
sS'listener'
p1126
g4
sS'pataphysicist'
p1127
g12
sS'artist'
p1128
g12
sS'Lopez'
p1129
g4
sS'troop'
p1130
g4
sS'activity'
p1131
g4
sS'nightingale'
p1132
g4
sS'Coll\xc3\xa8ge'
p1133
g31
sS'set'
p1134
g4
sS'art'
p1135
g9
sS'observer'
p1136
g4
sS'France'
p1137
g24
sS'culture'
p1138
g4
sS'computer'
p1139
g4
sS'college'
p1140
g31
sS'subcommittee'
p1141
g4
sS'calendar'
p1142
g7
sS'John'
p1143
g4
sS'paronym'
p1144
g4
sS'Vice-Curator'
p1145
g24
sS'luc'
p1146
g4
sS'Cage'
p1147
g4
sS'lineament'
p1148
g4
sS'vulgate'
p1149
g4
sS'article'
p1150
g4
sS'motto'
p1151
g4
sS'Jarry'
p1152
S'11'
p1153
sS'Pataphor'
p1154
g4
sS'country'
p1155
g24
sS'context'
p1156
g4
sS'apostrophe'
p1157
g9
sS'expression'
p1158
g4
sS'comment'
p1159
g4
sS'pataphysique'
p1160
g65
sS'table'
p1161
g4
sS'Gowanus'
p1162
g4
sS'Patamechanics'
p1163
g4
sS'life'
p1164
g4
sS'Arnaud'
p1165
g4
sS'exception'
p1166
g4
sS'Opach'
p1167
g4
sS'Shattuck'
p1168
g24
sS'institute'
p1169
g9
sS'joke'
p1170
g4
sS'property'
p1171
g4
sS'Lescure'
p1172
g4
sS'No\xc3\xabl'
p1173
g4
sS'orthography'
p1174
g4
sS'von'
p1175
g4
sS'Carelman'
p1176
g4
sS'violin'
p1177
g4
sS'Ubu'
p1178
g4
sS'paw'
p1179
g4
sS'media'
p1180
g4
sS'metaphysics'
p1181
g65
sS'member'
p1182
g24
sS'Guignol'
p1183
g4
sS'speech'
p1184
g4
sS'inch'
p1185
g4
sS'Sandomir'
p1186
g4
sS'Torma'
p1187
g4
sS'Budapest'
p1188
g4
sS'practitioner'
p1189
g4
sS'lutembus'
p1190
g4
sS'Institute'
p1191
g12
sS'Duchamp'
p1192
g24
sS'Publications'
p1193
g4
sS'Bristol'
p1194
g4
sS'collegium'
p1195
g4
sS'tradition'
p1196
g4
sS'schoolprank'
p1197
g4
sS'theater'
p1198
g4
sS'database'
p1199
g4
sS'1970'
p1200
g4
sS'Czechoslovakia'
p1201
g4
sS'Lithuania'
p1202
g4
sS'Pataphysica'
p1203
g4
sS'Sunday'
p1204
g24
sS'aspect'
p1205
g4
sS'internationalization'
p1206
g4
sS'Pataphysics'
p1207
g4
sS'Li\xc3\xa8ge'
p1208
g4
sS'application'
p1209
g4
sS'Far'
p1210
g4
sS'Friday'
p1211
g24
sS'character'
p1212
g4
sS'exhibition'
p1213
g4
sS'usage'
p1214
g4
sS'Ionesco'
p1215
g4
sS'Fair/Art'
p1216
g4
sS'Island'
p1217
g4
sS'Curator'
p1218
g4
sS'Mir\xc3\xb3'
p1219
g4
sS'world'
p1220
g147
sS'Art'
p1221
g4
sS'pataphysic'
p1222
S'20'
p1223
sS'London'
p1224
g12
sS'Aristotle'
p1225
g4
sS'physika'
p1226
g24
sS'creation'
p1227
g4
sS'Alfred'
p1228
g9
sS'Dr.'
p1229
g4
sS'candle'
p1230
g4
sS'Marx'
p1231
g4
sS'Rube'
p1232
g4
sS'Edinburgh'
p1233
g4
sS'religion'
p1234
g4
sS'Hemisphere'
p1235
g4
sS'Keith'
p1236
g4
sS'ornamentation'
p1237
g4
sS'journal'
p1238
g24
sS'Sweden'
p1239
g4
sS'sixty'
p1240
g4
sS'Bob'
p1241
g4
sS'PataNoir'
p1242
g4
sS'lyc\xc3\xa9e'
p1243
g4
sS'Roi'
p1244
g4
sS'December'
p1245
g4
sS'chance'
p1246
g4
sS'offshoot'
p1247
g4
sS'Baron'
p1248
g4
sS'inclusion'
p1249
g4
sS'Juan'
p1250
g4
sS'Fran\xc3\xa7ois'
p1251
g4
sS'magnificence'
p1252
g4
sS'Chipmunks'
p1253
g4
sS'area'
p1254
g4
sS'museum'
p1255
g9
sS'Strickstein'
p1256
g4
sS'pronunciation'
p1257
g4
sS'way'
p1258
g24
sS'November'
p1259
g4
sS'head'
p1260
g4
sS'pako'
p1261
g4
sS'Sculptures'
p1262
g4
sS'cabinet'
p1263
g4
sS'Switzerland'
p1264
g4
sS'Jean'
p1265
g24
sS'ear'
p1266
g4
sS'Groucho'
p1267
g4
sS'problem'
p1268
g4
sS'piece'
p1269
g4
sS'Vilniuje'
p1270
g4
sS'influence'
p1271
g4
sS'International'
p1272
g4
sS'politics'
p1273
g4
sS'archive'
p1274
g4
sS"L'\xc3\x89cho"
p1275
g4
sS'variety'
p1276
g4
sS'May'
p1277
g4
sS'Max'
p1278
g4
sS'hybrid'
p1279
g4
sS'reality'
p1280
g12
sS'field'
p1281
g4
sS'book'
p1282
g4
sS'Gregorian'
p1283
g12
sS'department'
p1284
g4
sS'Man'
p1285
g4
sS'Sophrotatos'
p1286
g4
sS'Lionnais'
p1287
g4
sS'Pablo'
p1288
g4
sS'variation'
p1289
g24
sS'earolin'
p1290
g4
sS'April'
p1291
g4
sS'meaning'
p1292
g24
sS'litt\xc3\xa9raire'
p1293
g4
sS'troupe'
p1294
g4
sS'South'
p1295
g4
sS'physics'
p1296
g12
sS'time'
p1297
g4
ss.