(dp0
S'quinine_total_synthesis'
p1
(dp2
S'lda'
p3
S'2'
p4
sS'skeleton'
p5
g4
sS'iodomethane'
p6
S'1'
p7
sS'Storks'
p8
g7
sS'compound'
p9
S'5'
p10
sS'Doering'
p11
g4
sS'Chemical'
p12
g4
sS'hydride'
p13
g4
sS'nitrogen'
p14
g7
sS'ethyl'
p15
g4
sS'precursor'
p16
g7
sS'ketone'
p17
S'3'
p18
sS'Chemie'
p19
g7
sS'ratio'
p20
g7
sS'sodium'
p21
S'6'
p22
sS'ring-closure'
p23
g7
sS'methanol'
p24
g4
sS'hydrogenation'
p25
g18
sS'removal'
p26
g7
sS'News'
p27
g7
sS'dmso'
p28
g7
sS'tb'
p29
g7
sS'alkylation'
p30
g4
sS'5b'
p31
g7
sS'methyl'
p32
g4
sS'myth'
p33
g7
sS'3-hydroxybenzaldehyde'
p34
g7
sS'molecule'
p35
g18
sS'Quinine'
p36
g18
sS'substituent'
p37
g7
sS'epimer'
p38
g7
sS'milestone'
p39
g7
sS'silver'
p40
g7
sS'closure'
p41
g7
sS'mesyl'
p42
g4
sS'anion'
p43
g7
sS'stereocontrol'
p44
g7
sS'oxygen'
p45
g7
sS'induction'
p46
g7
sS'ring'
p47
S'4'
p48
sS'enol'
p49
g7
sS'yield'
p50
g7
sS'betaine'
p51
g7
sS'raney'
p52
g7
sS'iodoethanol'
p53
g7
sS'fluoride'
p54
g7
sS'page'
p55
g7
sS'hydroxide'
p56
g7
sS'sequence'
p57
g7
sS'stereoisomer'
p58
g7
sS'group'
p59
S'23'
p60
sS'nitrite'
p61
g4
sS'year'
p62
g7
sS'acid'
p63
S'9'
p64
sS'Mitsunobu'
p65
g7
sS'substitute'
p66
g7
sS'subject'
p67
g7
sS'Angewandte'
p68
g7
sS'alcohol'
p69
g18
sS'azide'
p70
g18
sS'review'
p71
g7
sS'azido'
p72
g7
sS'Engineering'
p73
g7
sS'William'
p74
g7
sS'oxidation'
p75
g4
sS'urea'
p76
g4
sS'unit'
p77
g7
sS'lactol'
p78
g7
sS'diphenylphosphoryl'
p79
g7
sS'methoxide'
p80
g7
sS'anhydride'
p81
g7
sS'opening'
p82
g7
sS'staudinger'
p83
g7
sS'component'
p84
g18
sS'quinuclidine'
p85
g4
sS'water'
p86
g7
sS'isoquinoline'
p87
g7
sS'workup'
p88
g7
sS'vinyl'
p89
g4
sS'benzoyl'
p90
g7
sS'substitution'
p91
g7
sS'carbon'
p92
g7
sS'Bob'
p93
g7
sS'ethoxide'
p94
g7
sS'decahydroisoquinoline'
p95
g7
sS'tert-butyldiphenylsilyl'
p96
g7
sS'cyanate'
p97
g7
sS'stereospecificity'
p98
g7
sS'c'
p99
g48
sS'chiral'
p100
g7
sS'pressure'
p101
g7
sS'alkyl'
p102
g7
sS'aromat'
p103
g7
sS'step'
p104
S'10'
p105
sS'tbdp'
p106
g7
sS'controversy'
p107
g7
sS's'
p108
g7
sS'place'
p109
g18
sS'consequence'
p110
g7
sS'quinoline'
p111
g7
sS'diisobutylaluminum'
p112
g7
sS'quininate'
p113
g7
sS'timelime'
p114
g7
sS'ci'
p115
g4
sS'ethanol'
p116
g18
sS'claim'
p117
g18
sS'period'
p118
g7
sS'Stork'
p119
g18
sS'vinylbutyrolactone'
p120
g7
sS'quinine'
p121
S'11'
p122
sS'amine'
p123
g48
sS'Gilbert'
p124
g7
sS'total'
p125
g18
sS'methylene'
p126
g7
sS'ether'
p127
g4
sS'rabe/kindler'
p128
g7
sS'amino'
p129
g7
sS'platinum'
p130
g7
sS'piperidine'
p131
g4
sS'tert-butyldimethyl'
p132
g7
sS'diacetal'
p133
g7
sS'addition'
p134
g7
sS'imine'
p135
g4
sS'Hofmann'
p136
g7
sS'doubt'
p137
g7
sS'oxime'
p138
g4
sS'enantiomer'
p139
g7
sS'aminoacetaldehyde'
p140
g7
sS'chloride'
p141
g7
sS'synthesis'
p142
S'10'
p143
sS'nickel'
p144
g7
sS'Adams'
p145
g7
sS'reaction'
p146
S'11'
p147
sS'potassium'
p148
g7
sS'c9'
p149
g7
sS'c8'
p150
g7
sS'formaldehyde'
p151
g7
sS'catalyst'
p152
g7
sS'atom'
p153
g18
sS'elimination'
p154
g7
sS'tetrahydroisoquinoline'
p155
g7
sS'effort'
p156
g7
sS'c6'
p157
g7
sS'c5'
p158
g7
sS'c4'
p159
g4
sS'account'
p160
g7
sS'hour'
p161
g7
sS'amide'
p162
g4
sS'Woodward'
p163
g18
sS'carbon-3'
p164
g7
sS'hydrolysis'
p165
g4
sS'matter'
p166
g7
sS'oxide'
p167
g7
sS'\xc2\xb0'
p168
g18
sS'editorial'
p169
g7
sS'problem'
p170
g7
sS'bridge'
p171
g7
sS'dibenzoyl'
p172
g7
sS'quinotoxine'
p173
g7
sS'process'
p174
g7
sS'distillation'
p175
g7
sS'mixture'
p176
g4
sS'diethylamine'
p177
g7
sS'hydrogen'
p178
g7
sS'conversion'
p179
g7
sS'lactone'
p180
g18
sS'tetrahydropyridine'
p181
g7
sS'cyclization'
p182
g7
sS'Wittig'
p183
g7
sS'borohydride'
p184
g7
sS'epiquinine'
p185
g7
sS'aldehyde'
p186
g18
sS'ester'
p187
g18
sS'stereochemistry'
p188
g7
sS'development'
p189
g7
sS'product'
p190
g7
sS'methoxy'
p191
g7
sS'methoxymethylenetriphenylphosphine'
p192
g7
sS'ammonium'
p193
g7
sS'pyridine'
p194
g7
sS'silyl'
p195
g18
sS'position'
p196
g7
sS'hydroxyl'
p197
g48
sS'structure'
p198
g7
sS'condensation'
p199
g18
sS'center'
p200
g4
sS'resolution'
p201
g4
sS'salt'
p202
g4
sS'triphenylphosphine'
p203
g7
sS'Swern'
p204
g7
sS'isomer'
p205
g4
sS'n1'
p206
g7
sS'chemistry'
p207
g4
sS'4b'
p208
g7
sS'fact'
p209
g7
ssS'quantum_entanglement'
p210
(dp211
S'Leinaas'
p212
g4
sS'concept'
p213
g48
sS'chain'
p214
g18
sS'lack'
p215
g7
sS'reversibility'
p216
g7
sS'focus'
p217
g7
sS'entropy'
p218
S'21'
p219
sS'computation'
p220
g7
sS'formula_10'
p221
g7
sS'formula_11'
p222
g7
sS'formula_12'
p223
g7
sS'formula_14'
p224
g7
sS'formula_15'
p225
g7
sS'formula_16'
p226
g7
sS'eigenbasis'
p227
g7
sS'Gramegna'
p228
g7
sS'technique'
p229
g7
sS'environment'
p230
g4
sS'matrix'
p231
S'16'
p232
sS'beam-splitter'
p233
g7
sS'rise'
p234
g4
sS'choice'
p235
g7
sS'Erwin'
p236
g4
sS'electron'
p237
g64
sS'word'
p238
g18
sS'Maccone'
p239
g7
sS'condition'
p240
g7
sS'transmission'
p241
g7
sS'issue'
p242
g18
sS'solution'
p243
g7
sS'qudit'
p244
g7
sS'vector'
p245
g18
sS'team'
p246
g7
sS'Paul'
p247
g7
sS'Systems'
p248
g7
sS'work'
p249
g18
sS'force'
p250
g7
sS'prediction'
p251
g4
sS'Wootters'
p252
g18
sS'apparatus'
p253
g18
sS'sum'
p254
g18
sS'Magne'
p255
g7
sS'method'
p256
g48
sS'degree'
p257
g4
sS'component'
p258
g7
sS'theorist'
p259
g7
sS'separation'
p260
g18
sS'change'
p261
g18
sS'Giorgio'
p262
g7
sS'daughter'
p263
g4
sS'sender'
p264
g7
sS'study'
p265
g4
sS'example'
p266
S'13'
p267
sS'formula_18'
p268
g7
sS'amount'
p269
g7
sS'Entropy'
p270
g4
sS'Shannon'
p271
g18
sS'action'
p272
g18
sS'history'
p273
g7
sS'Ovrum'
p274
g7
sS'INRIM'
p275
g7
sS'projection'
p276
g7
sS'family'
p277
g7
sS'Istituto'
p278
g7
sS'bra'
p279
g7
sS'use'
p280
g10
sS'hippie'
p281
g7
sS'working'
p282
g7
sS'Entanglement'
p283
g7
sS'formula_9'
p284
g4
sS'type'
p285
g4
sS'flaw'
p286
g7
sS'diamond'
p287
g7
sS'Hamiltonian'
p288
g4
sS'trait'
p289
g7
sS'validity'
p290
g7
sS'Time'
p291
g7
sS'Vittorio'
p292
g7
sS'Neumann'
p293
g10
sS'science'
p294
g7
sS'equation'
p295
g7
sS'formula_40'
p296
g7
sS'Hippies'
p297
g7
sS'fock'
p298
g4
sS'norm'
p299
g7
sS'mechanic'
p300
S'19'
p301
sS'StateSeparator'
p302
g7
sS'proof'
p303
g7
sS'process'
p304
g48
sS'Ekert'
p305
g4
sS'agent'
p306
g7
sS'way'
p307
S'7'
p308
sS'something'
p309
g4
sS'sense'
p310
g48
sS'axis'
p311
g64
sS'information'
p312
S'12'
p313
sS'Barreto'
p314
g7
sS'cryptography'
p315
g4
sS'discussion'
p316
g7
sS'criterion'
p317
g10
sS'Genovese'
p318
g7
sS'Hilbert'
p319
g308
sS'Freedman'
p320
g7
sS'product'
p321
g308
sS'Nathan'
p322
g4
sS'description'
p323
g48
sS'algebra'
p324
g7
sS'down-conversion'
p325
g7
sS'microstate'
p326
g7
sS'wave'
p327
g7
sS'light'
p328
g10
sS'departure'
p329
g7
sS'cascade'
p330
g7
sS'Lloyd'
p331
g4
sS'correlation'
p332
g64
sS'order'
p333
g7
sS'travel'
p334
g7
sS'restriction'
p335
g7
sS'Gabriela'
p336
g7
sS'interpretation'
p337
g22
sS'GHZ'
p338
g7
sS'Jan'
p339
g7
sS'paper'
p340
g308
sS'interceptor'
p341
g7
sS'MIT'
p342
g7
sS'Brassard'
p343
g7
sS'Marco'
p344
g4
sS'group'
p345
g7
sS'decay'
p346
g48
sS'relativity'
p347
g10
sS'e91'
p348
g7
sS'loophole'
p349
g7
sS'practice'
p350
g7
sS'Seth'
p351
g7
sS'framework'
p352
g4
sS'Verschr\xc3\xa4nkung'
p353
g7
sS'mystery'
p354
g7
sS'eigenvalue'
p355
g7
sS'term'
p356
g7
sS'realist'
p357
g18
sS'ensemble'
p358
S'12'
p359
sS'inequality'
p360
g308
sS'trap'
p361
g7
sS'arrow'
p362
g10
sS'realism'
p363
g4
sS'subsystem'
p364
g10
sS'density'
p365
S'13'
p366
sS'energy'
p367
g7
sS'idea'
p368
g4
sS'Peres-Horodecki'
p369
g4
sS'quantum'
p370
S'53'
p371
sS'Don'
p372
g7
sS'event'
p373
g48
sS'August'
p374
g7
sS'space'
p375
S'10'
p376
sS'psychic'
p377
g7
sS'research'
p378
g7
sS'William'
p379
g7
sS'investigation'
p380
g7
sS'cause'
p381
g7
sS'Jon'
p382
g7
sS'foundation'
p383
g18
sS'fiber'
p384
g7
sS'theory'
p385
S'16'
p386
sS'University'
p387
g7
sS'possibility'
p388
g18
sS'imaging'
p389
g18
sS'definition'
p390
g22
sS'interaction'
p391
g22
sS'thing'
p392
g7
sS'view'
p393
g18
sS'probability'
p394
g64
sS'researcher'
p395
g4
sS'coding'
p396
g4
sS'number'
p397
S'8'
p398
sS'rank'
p399
g4
sS'xy'
p400
g7
sS'message'
p401
g7
sS'size'
p402
g7
sS'Boris'
p403
g4
sS'law'
p404
g7
sS'observer'
p405
g64
sS'utilization'
p406
g7
sS'system'
p407
S'48'
p408
sS'assumption'
p409
g7
sS'convention'
p410
g4
sS'scheme'
p411
g7
sS'collapse'
p412
g7
sS'explanation'
p413
g7
sS'part'
p414
g7
sS'Brida'
p415
g7
sS'constituent'
p416
g4
sS'copy'
p417
g7
sS'separability'
p418
g48
sS'population'
p419
g4
sS'distance'
p420
g48
sS'target'
p421
g4
sS'web-app'
p422
g7
sS'Aspect'
p423
g7
sS'Clauser'
p424
g7
sS'outcome'
p425
g64
sS'generality'
p426
g7
sS'Relativity'
p427
g7
sS'argument'
p428
g4
sS'Metrologica'
p429
g7
sS'strength'
p430
g7
sS'angle'
p431
g7
sS'formula_37'
p432
g7
sS'formula_35'
p433
g7
sS'Albert'
p434
g4
sS'nonlocality'
p435
g7
sS'polarization'
p436
g4
sS'instance'
p437
g7
sS'detector'
p438
g7
sS'tool'
p439
g7
sS'accuracy'
p440
g7
sS'calculus'
p441
g4
sS'trace'
p442
g48
sS'object'
p443
g10
sS'molecule'
p444
g7
sS'letter'
p445
g7
sS'nothing'
p446
g7
sS'coin'
p447
g7
sS'class'
p448
g4
sS'm'
p449
g4
sS'principle'
p450
g10
sS'physics'
p451
g48
sS'notion'
p452
g7
sS'fact'
p453
g4
sS'phenomenon'
p454
g22
sS'violation'
p455
g48
sS'Research'
p456
g7
sS'Hong-Ou-Mandel'
p457
g7
sS'Kaiser'
p458
g7
sS'Ekaterina'
p459
g7
sS'analogue'
p460
g7
sS'dilation'
p461
g7
sS'ground'
p462
g18
sS'Heisenberg'
p463
g4
sS'causality'
p464
g7
sS'knowledge'
p465
g7
sS'spite'
p466
g7
sS'implementation'
p467
g7
sS'proportion'
p468
g7
sS'state'
p469
S'119'
p470
sS'\xcf\x81'
p471
g7
sS'lightspeed'
p472
g7
sS'experiment'
p473
S'13'
p474
sS'subsection'
p475
g7
sS'R\xc3\xa9nyi'
p476
g7
sS'axiom'
p477
g7
sS'equilibrium'
p478
g7
sS'notation'
p479
g7
sS'means'
p480
g7
sS'Eirik'
p481
g7
sS'timing'
p482
g7
sS'closure'
p483
g7
sS'evolution'
p484
g7
sS'resource'
p485
g7
sS'Werner'
p486
g7
sS'x'
p487
g7
sS'implication'
p488
g7
sS'np-hard'
p489
g7
sS'reference'
p490
g7
sS'frame'
p491
g4
sS'testing'
p492
g7
sS'Rosen'
p493
g18
sS'result'
p494
g22
sS'John'
p495
g7
sS'arm'
p496
g7
sS'subject'
p497
g18
sS'tensor'
p498
g7
sS'DeWitt'
p499
g7
sS'familiarity'
p500
g7
sS'Boltzmann'
p501
g7
sS'approach'
p502
g4
sS'discovery'
p503
g7
sS'positron'
p504
g7
sS'nature'
p505
g18
sS'importance'
p506
g7
sS'confusion'
p507
g7
sS'transpose'
p508
g7
sS'physicist'
p509
g18
sS'teleportation'
p510
g4
sS'Nazionale'
p511
g7
sS'article'
p512
g7
sS'ket'
p513
g7
sS'distribution'
p514
g10
sS'observable'
p515
g7
sS'uncertainty'
p516
g10
sS'buckyball'
p517
g7
sS'connection'
p518
g7
sS'context'
p519
g7
sS'receiver'
p520
g7
sS'section'
p521
g48
sS'qubit'
p522
g48
sS'whole'
p523
g4
sS'Causality'
p524
g7
sS'point'
p525
g4
sS'community'
p526
g4
sS'Turin'
p527
g7
sS'source'
p528
g4
sS'Ricerca'
p529
g7
sS'interest'
p530
g18
sS'direction'
p531
g18
sS'photon'
p532
S'12'
p533
sS'precision'
p534
g7
sS'spectrum'
p535
g7
sS'determination'
p536
g7
sS'spin'
p537
S'20'
p538
sS'case'
p539
S'13'
p540
sS'bb84'
p541
g4
sS'value'
p542
g48
sS'n'
p543
g48
sS'behavior'
p544
g4
sS'Quantum'
p545
g398
sS'aid'
p546
g7
sS'property'
p547
g308
sS'Podolsky'
p548
g18
sS'Italy'
p549
g7
sS'von'
p550
g10
sS'site'
p551
g7
sS'coupler'
p552
g7
sS'spin-1'
p553
g7
sS'march'
p554
g7
sS'Giovannetti'
p555
g7
sS'media'
p556
g7
sg108
g4
sS'member'
p557
g7
sS'pad'
p558
g7
sS'development'
p559
g7
sS'literature'
p560
g7
sS'logic'
p561
g7
sS'effect'
p562
g398
sS'moment'
p563
g4
sS'purpose'
p564
g7
sS'entanglement'
p565
S'68'
p566
sS'%'
p567
g7
sS'task'
p568
g7
sS'formula_29'
p569
g7
sS'formula_28'
p570
g7
sS'formula_25'
p571
g4
sS'formula_24'
p572
g4
sS'locality'
p573
g10
sS'epr'
p574
g18
sS'formula_22'
p575
g7
sS'thought'
p576
g4
sS'contact'
p577
g7
sS'Schr\xc3\xb6dinger'
p578
g18
sS'position'
p579
g18
sS'paradox'
p580
g398
sS'Saved'
p581
g7
sS'dimension'
p582
g7
sS'protocol'
p583
g18
sS'EPR'
p584
g10
sS'Moreva'
p585
g7
sS'Borel'
p586
g4
sS'Lorenzo'
p587
g7
sS'aspect'
p588
g7
sS'speed'
p589
g18
sS'Theory'
p590
g7
sS'field'
p591
g48
sS'Myrheim'
p592
g7
sS'thermodynamics'
p593
g7
sS'spread'
p594
g7
sS'theorem'
p595
g308
sS'eigenstate'
p596
g7
sS'momentum'
p597
g48
sS'Dirac'
p598
g7
sS'measurement'
p599
S'41'
p600
sS'Alice'
p601
g22
sS'world'
p602
g7
sS'loss'
p603
g7
sS'd'
p604
g7
sS'particle'
p605
S'44'
p606
sS'security'
p607
g7
sS'sequence'
p608
g7
sS'Lemos'
p609
g4
sS'Vienna'
p610
g7
sS'noon'
p611
g18
sS'Reeh-Schlieder'
p612
g7
sS'unit'
p613
g7
sS'mode'
p614
g48
sS'noise'
p615
g7
sS'agreement'
p616
g7
sS'David'
p617
g7
sS'formula_6'
p618
g7
sS'formula_7'
p619
g7
sS'formula_4'
p620
g7
sS'formula_3'
p621
g7
sS'formula_1'
p622
g7
sS'Bob'
p623
g48
sS'projector'
p624
g7
sS'universe'
p625
g7
sS'certainty'
p626
g7
sS'basis'
p627
g64
sS'act'
p628
g7
sS'book'
p629
g7
sS'block'
p630
g18
sS'dilemma'
p631
g7
sS'presence'
p632
g7
sS'communication'
p633
g22
sS'Bennet'
p634
g7
sS'pair'
p635
S'10'
p636
sS'spin-zero'
p637
g7
sS'ppt'
p638
g7
sS'operator'
p639
g18
sS'statistics'
p640
g7
sS'area'
p641
g7
sS'Wheeler'
p642
g7
sS'question'
p643
g18
sS'conservation'
p644
g4
sS'formula_51'
p645
g4
sS'formula_52'
p646
g7
sS'formula_53'
p647
g7
sS'fernwirkung'
p648
g7
sS'interferometry'
p649
g4
sS'function'
p650
g4
sS'form'
p651
g48
sS'regard'
p652
g4
sS'Bohm'
p653
g7
sS'line'
p654
g7
sS'Bell'
p655
S'17'
p656
sS'maximum'
p657
g18
sS'limit'
p658
g308
sS'Einstein'
p659
g64
sS'problem'
p660
g18
sS'CIA'
p661
g7
sS'constant'
p662
g7
sS'computing'
p663
g7
sS'measure'
p664
S'14'
p665
sS'influence'
p666
g7
sS'formulation'
p667
g18
sS'formalism'
p668
g18
sS'completeness'
p669
g4
sS'polarisation'
p670
g7
sS'aklt'
p671
g7
sS'reality'
p672
g7
sS'application'
p673
g48
sS'other'
p674
g4
sS'role'
p675
g18
sS'papers'
p676
g7
sS'test'
p677
g18
sS'picture'
p678
g7
sS'superposition'
p679
g7
sS'time'
p680
S'19'
p681
sS'meaning'
p682
g4
sS'variable'
p683
g398
sS'Page'
p684
g18
sS'Stewart'
p685
g7
sS'non-locality'
p686
g48
sS'algorithm'
p687
g7
sS'interval'
p688
g7
sS'ramification'
p689
g7
sS'dot'
p690
g7
sS'Artur'
p691
g7
sS'resolution'
p692
g4
sS'precedent'
p693
g7
ssS'queen_of_sheba'
p694
(dp695
S'dynasty'
p696
g48
sS'content'
p697
g7
sS'father'
p698
g7
sS'regal'
p699
g7
sS'doorjamb'
p700
g7
sS'abundance'
p701
g7
sS'woman'
p702
g48
sS'rescue'
p703
g7
sS'song'
p704
g4
sS'Chartres'
p705
g4
sS'choice'
p706
g7
sS'L\xc3\xa9opold'
p707
g7
sS'fall'
p708
g7
sS'Mesopotamia'
p709
g7
sS'condition'
p710
g7
sS'chapel'
p711
g7
sS'Joshua'
p712
g7
sS'scholar'
p713
g18
sS'disfiguring'
p714
g7
sS'level'
p715
g7
sS'list'
p716
g7
sS'brother'
p717
g7
sS'grandfather'
p718
g7
sS'succession'
p719
g7
sS'Eurafrique'
p720
g7
sS'Aww\xc4\x81m'
p721
g7
sS'force'
p722
g4
sS'Strasbourg'
p723
g7
sS'Claude'
p724
g7
sS'incantation'
p725
g7
sS'Red'
p726
g7
sS'Qur'
p727
g7
sS'Nebuchadnezzar'
p728
g7
sS'Bilkis'
p729
g48
sS'sun'
p730
g7
sS'Aramaic'
p731
g7
sS'version'
p732
g4
sS'capital'
p733
g7
sS'leg'
p734
g48
sS'Church'
p735
g4
sS'water'
p736
g10
sS'witch'
p737
g7
sS'Senghor'
p738
g4
sS'legend'
p739
S'10'
p740
sS'Balqis'
p741
g7
sS'Jews'
p742
g7
sS'conviction'
p743
g7
sS'shift'
p744
g7
sS'study'
p745
g4
sS'Queen'
p746
S'14'
p747
sS'Targum'
p748
g4
sS'Za'
p749
g7
sS'controversy'
p750
g7
sS'Arabia'
p751
g10
sS'Francesca'
p752
g7
sS'mistake'
p753
g4
sS'Talmud'
p754
g7
sS'love'
p755
g7
sS'family'
p756
g7
sS'Doctor'
p757
g7
sS'Pisa'
p758
g7
sS'Nigeria'
p759
g7
sS'ii.'
p760
g7
sS'Europe'
p761
g7
sS'use'
p762
g7
sS'visit'
p763
g48
sS'doubt'
p764
g7
sS'pilegesh'
p765
g7
sS'possession'
p766
g7
sS'Land'
p767
g7
sS'Ben'
p768
g7
sS'riot'
p769
g7
sS'demon'
p770
g48
sS'Zagwe'
p771
g7
sS'glass'
p772
g18
sS'depilatory'
p773
g7
sS'Haile'
p774
g7
sS'Salomon'
p775
g7
sS'account'
p776
g7
sS'hour'
p777
g7
sS'German'
p778
g7
sS'work'
p779
g4
sS'example'
p780
g7
sS'iconography'
p781
g7
sS'claim'
p782
g4
sS'figure'
p783
g4
sS'Codex'
p784
g7
sS'attribute'
p785
g7
sS'depiction'
p786
g4
sS'Prado'
p787
g7
sS'Jesus'
p788
g7
sS'dress'
p789
g7
sS'Iskinder'
p790
g7
sS'animal'
p791
g7
sS'creature'
p792
g7
sS'Eritrea'
p793
g7
sS'Nagast'
p794
g7
sS'Klosterneuburg'
p795
g7
sS'ff'
p796
g7
sS'Martin'
p797
g7
sS'spelling'
p798
g7
sS'descent'
p799
g7
sS'Marlowe'
p800
g7
sS'bilq\xc4\xabs'
p801
g7
sS'Kabbala'
p802
g7
sS'element'
p803
g4
sS'tale'
p804
g7
sS'Selassie'
p805
g7
sS'Hebrew'
p806
g18
sS'Kings'
p807
g48
sS'wing'
p808
g7
sS'Islam'
p809
g7
sS'interpretation'
p810
g4
sS'mystica'
p811
g7
sS'mission'
p812
g7
sS'trade'
p813
g4
sS'Lorrain'
p814
g7
sS'Amlak'
p815
g7
sS'Arab-Berber'
p816
g7
sS'Zamakhshari'
p817
g7
sS'S\xc3\xa9dar'
p818
g7
sS'Sakina'
p819
g7
sS'window'
p820
g4
sS'Afrocentrism'
p821
g7
sS'Helen'
p822
g7
sS'tubba'
p823
g7
sS'might'
p824
g7
sS'Queens'
p825
g7
sS'prophetess'
p826
g7
sS'return'
p827
g7
sS'food'
p828
g7
sS'material'
p829
g7
sS'Mephistopheles'
p830
g7
sS'mention'
p831
g4
sS'half'
p832
g7
sS'foot'
p833
g7
sS'Venus'
p834
g7
sS'day'
p835
g7
sS'rumour'
p836
g7
sS'term'
p837
g4
sS'Josephus'
p838
g4
sS'servant'
p839
g7
sS'Zohar'
p840
g7
sS'Kenya'
p841
g7
sS'Azeba'
p842
g7
sS'side'
p843
g7
sS'Gozzoli'
p844
g7
sS'generation'
p845
g7
sS'garment'
p846
g7
sS'Septuagint'
p847
g7
sS'year'
p848
g18
sS'cathedral'
p849
g4
sS'operation'
p850
g7
sS'tenth'
p851
g7
sS'Holy'
p852
g7
sS'triptych'
p853
g7
sS'thirst'
p854
g4
sS'someplace'
p855
g7
sS'Renaissance'
p856
g18
sS'Job'
p857
g7
sS'Vaticanus'
p858
g7
sS'worshiper'
p859
g7
sS'ass'
p860
g7
sS'foundation'
p861
g7
sS'Sheba'
p862
S'37'
p863
sS'theory'
p864
g7
sS'city'
p865
g18
sS'variant'
p866
g7
sS'Veronese'
p867
g7
sS'oasis'
p868
g7
sS'base'
p869
g7
sS'whereupon'
p870
g7
sS'implication'
p871
g7
sS'Cambridge'
p872
g7
sS'National'
p873
g7
sS'Horn'
p874
g7
sS'turn'
p875
g7
sS'place'
p876
g7
sS'Meq\xc3\xa9don'
p877
g7
sS'Batra'
p878
g7
sS'testament'
p879
g7
sS'Sabaic'
p880
g7
sS'support'
p881
g7
sS'south'
p882
g7
sS'origin'
p883
g7
sS'Prov'
p884
g7
sS'\xcf\x80\xce\xb1\xce\xbb\xce\xbb\xce\xb1\xce\xba\xce\xaf\xcf\x82'
p885
g7
sS'fantasy'
p886
g7
sS'Black'
p887
g7
sS'Baptistery'
p888
g7
sS'Iyaos'
p889
g7
sS'art'
p890
g22
sS'message'
p891
g7
sS'ditch'
p892
g7
sS'size'
p893
g7
sS'Ijebu-Ode'
p894
g7
sS'story'
p895
g10
sS'Boccaccio'
p896
g4
sS'jew'
p897
g7
sS'Tintoretto'
p898
g7
sS'historian'
p899
g4
sS'system'
p900
g7
sS'name'
p901
g10
sS'Frau'
p902
g7
sS'convention'
p903
g7
sS'Benozzo'
p904
g7
sS'Chron'
p905
g7
sS'el\xc3\xa9gies'
p906
g7
sS'Patrick'
p907
g7
sS'\xe1\xb8\xa5iddot'
p908
g7
sS'wisdom'
p909
g18
sS'part'
p910
g18
sS'manifestation'
p911
g7
sS'Midrash'
p912
g4
sS'king'
p913
g48
sS'Ladies'
p914
g4
sS'Sira'
p915
g7
sS'Menelik'
p916
g18
sS'coronation'
p917
g7
sS'gentile'
p918
g7
sS'bed'
p919
g7
sS'youth'
p920
g7
sS'bride'
p921
g4
sS'marriage'
p922
g7
sS'Sea'
p923
g7
sS'Alexander'
p924
g4
sS'sculpture'
p925
g7
sS'Ghiberti'
p926
g7
sS'Court'
p927
g7
sS'palace'
p928
g48
sS'Seba'
p929
g7
sS'Bava'
p930
g7
sS'argument'
p931
g7
sS'Hieronymus'
p932
g7
sS'balsam'
p933
g7
sS'elaboration'
p934
g7
sS'theology'
p935
g4
sS'Hamdan'
p936
g7
sS'Christian'
p937
g7
sS'Arab'
p938
g7
sS'Famous'
p939
g7
sS'analogy'
p940
g7
sS'Santo'
p941
g7
sS'Gallery'
p942
g7
sS'trace'
p943
g7
sS'fresco'
p944
g4
sS'beta'
p945
g48
sS'souvereignity'
p946
g7
sS'letter'
p947
g4
sS'achievement'
p948
g7
sS'Sanctuary'
p949
g7
sS'sheba'
p950
g7
sS'enamel'
p951
g7
sS'Egypt'
p952
g18
sS'oath'
p953
g7
sS'Dynasty'
p954
g7
sS'Nourad'
p955
g7
sS'fact'
p956
g7
sS'Arezzo'
p957
g7
sS'gold'
p958
g7
sS'saga'
p959
g7
sS'text'
p960
g7
sS'Angabo'
p961
g7
sS'queen'
p962
S'44'
p963
sS'contemporary'
p964
g7
sS'El\xc3\xa9gie'
p965
g7
sS'Ethiopia'
p966
g10
sS'sabaean'
p967
g7
sS'Ethiopic'
p968
g7
sS'relation'
p969
g7
sS'Palestine'
p970
g7
sS'earth'
p971
g7
sS'xxvii'
p972
g7
sS'adoration'
p973
g18
sS'Ma\xe1\xb8\xa5ram'
p974
g7
sS'title'
p975
g4
sS'Yoruba'
p976
g7
sS'writer'
p977
g7
sS'jar'
p978
g7
sS'inscription'
p979
g18
sS'wood'
p980
g4
sS'Legend'
p981
g7
sS'dispute'
p982
g7
sS'de'
p983
g7
sS'coast'
p984
g7
sS'beam'
p985
g7
sS'banquet'
p986
g7
sS'continuum'
p987
g7
sS'Felix'
p988
g7
sS'morning'
p989
g7
sS'Kitor'
p990
g7
sS'Tabari'
p991
g7
sS'crucifixion'
p992
g7
sS'river'
p993
g7
sS'view'
p994
g7
sS'Loggie'
p995
g7
sS'Rochester'
p996
g7
sS'reference'
p997
g7
sS'excavation'
p998
g7
sS'Ullendorff'
p999
g7
sS'fable'
p1000
g7
sS'Christianity'
p1001
g7
sS'legacy'
p1002
g7
sS'sea'
p1003
g7
sS'Babylon'
p1004
g7
sS'subject'
p1005
g10
sS'Faustus'
p1006
g4
sS'Monastery'
p1007
g7
sS'rendition'
p1008
g7
sS'corruption'
p1009
g7
sS'King'
p1010
g398
sS'Bible'
p1011
g48
sS'Rheims'
p1012
g7
sS'Campo'
p1013
g7
sS'Vatican'
p1014
g7
sS'Nicaula'
p1015
g18
sS'pagan'
p1016
g7
sS'bronze'
p1017
g7
sS'kitchen'
p1018
g7
sS'embarkation'
p1019
g7
sS'country'
p1020
g7
sS'Yekuno'
p1021
g7
sS'connection'
p1022
g7
sS'archaeologist'
p1023
g4
sS'Pinacotheca'
p1024
g7
sS'riddle'
p1025
g4
sS'point'
p1026
g4
sS'wall'
p1027
g7
sS'continuation'
p1028
g7
sS'loan'
p1029
g7
sS'satisfaction'
p1030
g7
sS'dancer'
p1031
g7
sS'B.C.'
p1032
g18
sS'Noth'
p1033
g7
sS'poem'
p1034
g7
sS'union'
p1035
g7
sS'interest'
p1036
g7
sS'God'
p1037
g4
sS'meeting'
p1038
g4
sS'Women'
p1039
g7
sS'Shulamite'
p1040
g7
sS'Negritude'
p1041
g7
sS'concubine'
p1042
g7
sS'folklore'
p1043
g4
sS'child'
p1044
g4
sS'spirit'
p1045
g7
sS'\xce\xb2\xce\xb1\xcf\x83\xce\xaf\xce\xbb\xce\xb9\xcf\x83\xcf\x83\xce\xb1'
p1046
g7
sS'redaction'
p1047
g7
sS'Yemenite'
p1048
g7
sS'Amiens'
p1049
g7
sS'Ant'
p1050
g7
sS'College'
p1051
g7
sS'Mura'
p1052
g7
sS'Reine'
p1053
g7
sS'mythology'
p1054
g7
sS'della'
p1055
g7
sS'motif'
p1056
g7
sS'century'
p1057
S'11'
p1058
sS'Aggadah'
p1059
g7
sS'Kebra'
p1060
g7
sS'Makeda'
p1061
g22
sS'decoration'
p1062
g7
sS'middle'
p1063
g4
sS'Falashas'
p1064
g7
sS'Nubia'
p1065
g7
sS'Darling'
p1066
g7
sS'Athena'
p1067
g7
sS'Israel'
p1068
g308
sS'Esther'
p1069
g4
sS'myth'
p1070
g7
sS'author'
p1071
g7
sS'Sheni'
p1072
g4
sS'alphabet'
p1073
g7
sS'cross'
p1074
g7
sS'romance'
p1075
g7
sS'unity'
p1076
g7
sS'15b'
p1077
g7
sS'monarch'
p1078
g7
sS'composition'
p1079
g7
sS'Kabbalah'
p1080
g7
sS'Shabbat'
p1081
g7
sS'literature'
p1082
g18
sS'hand'
p1083
g7
sS'Raphael'
p1084
g7
sS'moment'
p1085
g7
sS'fruit'
p1086
g7
sS'realm'
p1087
g4
sS'Saba'
p1088
g18
sS'tradition'
p1089
g48
sS'cycle'
p1090
g7
sS'reflection'
p1091
g7
sS'noblewoman'
p1092
g7
sS'hoopoe'
p1093
g7
sS'1970'
p1094
g7
sS'Nakuti'
p1095
g7
sS'model'
p1096
g4
sS'Jerusalem'
p1097
g48
sS'mqtwyt'
p1098
g4
sS'camel'
p1099
g4
sS'Senghors'
p1100
g7
sS'shape'
p1101
g7
sS'Arabian'
p1102
g4
sS'Lorenzo'
p1103
g7
sS'world'
p1104
g4
sS'differentiation'
p1105
g7
sS'Shekinah'
p1106
g7
sS'B.C.E.'
p1107
g48
sS'death'
p1108
g7
sS'retinue'
p1109
g7
sS'source'
p1110
g4
sS'Magi'
p1111
g18
sS'Christopher'
p1112
g7
sS'contrary'
p1113
g7
sS'Pizan'
p1114
g4
sS'kingdom'
p1115
g22
sS'Piero'
p1116
g7
sS'Glory'
p1117
g7
sS'ruler'
p1118
g18
sS'specimen'
p1119
g7
sS'Nile'
p1120
g7
sS'Solomon'
p1121
S'31'
p1122
sS'royalty'
p1123
g7
sS'Turin'
p1124
g7
sS'authorship'
p1125
g7
sS'Yemen'
p1126
g7
sS'descendant'
p1127
g7
sS'clan'
p1128
g7
sS'gift'
p1129
g18
sS'Candace'
p1130
g18
sS'Troy'
p1131
g7
sS'London'
p1132
g7
sS'night'
p1133
g4
sS'Operation'
p1134
g18
sS'Prince'
p1135
g7
sS'snatcher'
p1136
g7
sS'people'
p1137
g18
sS'Chosen'
p1138
g7
sS'majeure'
p1139
g7
sS'hair'
p1140
g7
sS'sungbo'
p1141
g7
sS'New'
p1142
g7
sS'Mary'
p1143
g7
sS'Quran'
p1144
g18
sS'Temple'
p1145
g7
sS'commentator'
p1146
g4
sS'leader'
p1147
g7
sS'explicite'
p1148
g7
sS'ha-hefez'
p1149
g7
sS'power'
p1150
g7
sS'bc'
p1151
g7
sS'mlkt'
p1152
g7
sS'Baydawi'
p1153
g7
sS'Emperor'
p1154
g7
sS'panel'
p1155
g7
sS'throne'
p1156
g18
sS'faith'
p1157
g7
sS'stone'
p1158
g7
sS'Besi'
p1159
g7
sS'anything'
p1160
g7
sS'island'
p1161
g7
sS'bilikisu'
p1162
g7
sS'despair'
p1163
g7
sS'Lefkowitz'
p1164
g7
sS'Falash'
p1165
g7
sS'act'
p1166
g7
sS'emperor'
p1167
g4
sS'tribe'
p1168
g7
sS'Yal\xe1\xb8\xb3'
p1169
g7
sS'sog'
p1170
g7
sS'image'
p1171
g7
sS'rendering'
p1172
g7
sS'promise'
p1173
g7
sS'Bosch'
p1174
g7
sS'area'
p1175
g7
sS'Lilith'
p1176
g7
sS'jinn'
p1177
g7
sS'question'
p1178
g7
sS'South'
p1179
g18
sS'house'
p1180
g7
sS'hem'
p1181
g7
sS'XXVII'
p1182
g4
sS'north'
p1183
g7
sS'link'
p1184
g7
sS'Canterbury'
p1185
g7
sS'line'
p1186
g7
sS'spice'
p1187
g18
sS'Sabaeans'
p1188
g4
sS'official'
p1189
g7
sS'Africa'
p1190
g18
sS'Makueda'
p1191
g7
sS'ruse'
p1192
g7
sS'Meroe'
p1193
g7
sS'Florence'
p1194
g7
sS'classic'
p1195
g7
sS'influence'
p1196
g7
sS'evidence'
p1197
g7
sS'imagination'
p1198
g7
sS'Edward'
p1199
g7
sS'Aksum'
p1200
g18
sS'door'
p1201
g7
sS'ship'
p1202
g7
sS'Kandake'
p1203
g7
sS'\xcf\x83\xce\xb1\xce\xb2\xe1\xbd\xb0'
p1204
g7
sS'Christine'
p1205
g4
sS'floor'
p1206
g4
sS'targ'
p1207
g7
sS'detail'
p1208
g7
sS'Wells'
p1209
g7
sS'book'
p1210
g18
sS'role'
p1211
g4
sS'Marib'
p1212
g7
sS'Great'
p1213
g7
sS'symbol'
p1214
g7
sS'narrative'
p1215
g10
sS'Macedonia'
p1216
g7
sS'journey'
p1217
g7
sS'desert'
p1218
g7
sS'pool'
p1219
g7
sS'land'
p1220
g4
sS'E.g.'
p1221
g7
sS'Ijebu'
p1222
g7
sS'reception'
p1223
g7
sS'time'
p1224
g7
sS'Orient'
p1225
g7
ssS'quetzalcoatl'
p1226
(dp1227
S'Indians'
p1228
g7
sS'month'
p1229
g7
sS'Quetzalpetlatl'
p1230
g7
sS'Saint'
p1231
g7
sS'franciscan'
p1232
g18
sS'Mixtecs'
p1233
g7
sS'Tlaxcalteca'
p1234
g7
sS'young'
p1235
g7
sS'lord'
p1236
g7
sS'merchant'
p1237
g7
sS'ehecaicozcatl'
p1238
g4
sS'Sunstone'
p1239
g7
sS'fall'
p1240
g4
sS'Thomas'
p1241
g18
sS'scholar'
p1242
g18
sS'Tlahuizcalpantecuhtli'
p1243
g7
sS'brother'
p1244
g7
sS'race'
p1245
g7
sS'Nahuatl'
p1246
g48
sS'Mecca'
p1247
g7
sS'Carrasco'
p1248
g4
sS'force'
p1249
g7
sS'crow'
p1250
g7
sS'Kukulcan'
p1251
g7
sS'sign'
p1252
g7
sS'Matthew'
p1253
g4
sS'value'
p1254
g7
sS'East'
p1255
g7
sS'Red'
p1256
g7
sS'Ehecatl'
p1257
g7
sS'Quetzalcoatl'
p1258
S'54'
p1259
sS'thunder'
p1260
g7
sS'version'
p1261
g18
sS'Reed'
p1262
g7
sS'capital'
p1263
g7
sS'movement'
p1264
g7
sS'degree'
p1265
g7
sS'Susan'
p1266
g7
sS'Age'
p1267
g4
sS'understanding'
p1268
g7
sS'illustration'
p1269
g7
sS'English'
p1270
g7
sS'deceit'
p1271
g7
sS'galleon'
p1272
g7
sS'Aztec/Nahua'
p1273
g7
sS'mythology'
p1274
g7
sS'study'
p1275
g7
sS'example'
p1276
g18
sS'Cort\xc3\xa9s'
p1277
S'11'
p1278
sS'Legacy'
p1279
g7
sS'Cholula'
p1280
g22
sS'opinion'
p1281
g7
sS'history'
p1282
g48
sS'Harvey'
p1283
g7
sS'St.'
p1284
g18
sS'life-way'
p1285
g7
sS'nahua'
p1286
g4
sS'follower'
p1287
g7
sS'Manila'
p1288
g7
sS'duck'
p1289
g7
sS'Atonement'
p1290
g7
sS'patron'
p1291
g18
sS'army'
p1292
g7
sS'conquistador'
p1293
g7
sS'Moctezuma'
p1294
g48
sS'calf'
p1295
g7
sS'comparison'
p1296
g7
sS'Plain'
p1297
g7
sS'Omecihuatl'
p1298
g7
sS'sorcery'
p1299
g7
sS'Taylor'
p1300
g7
sS'Florescano'
p1301
g7
sS'teaching'
p1302
g7
sS'penis'
p1303
g7
sS'cult'
p1304
g18
sS'Coatlicue'
p1305
g7
sS'account'
p1306
g4
sS'work'
p1307
g7
sS'era'
p1308
g4
sS'Children'
p1309
g7
sS'proof'
p1310
g7
sS'iconography'
p1311
g308
sS'heart'
p1312
g7
sS'ritual'
p1313
g4
sS'figure'
p1314
g7
sS'La'
p1315
g7
sS'Codex'
p1316
g4
sS'attribute'
p1317
g4
sS'Plumed'
p1318
g7
sS'depiction'
p1319
g398
sS'cross-section'
p1320
g7
sS'Lord'
p1321
g4
sS'clothing'
p1322
g7
sS'embodiment'
p1323
g7
sS'feature'
p1324
g7
sS'Gardner'
p1325
g7
sS'animal'
p1326
g7
sS'significance'
p1327
g7
sS'Americans'
p1328
g4
sS'dominance'
p1329
g7
sS'description'
p1330
g7
sS'sacrifice'
p1331
g7
sS'Acatl'
p1332
g7
sS'Teotihuacan'
p1333
g398
sS'Oaxaca'
p1334
g7
sS'blood'
p1335
g7
sS'date'
p1336
g7
sS'man'
p1337
g7
sS'imagery'
p1338
g7
sS'neck'
p1339
g7
sS'Mexico'
p1340
S'10'
p1341
sS'light'
p1342
g7
sS'element'
p1343
g7
sS'tlahuizcalpantecuhtlus'
p1344
g4
sS'necklace'
p1345
g7
sS'dream'
p1346
g7
sS'order'
p1347
g4
sS'wind'
p1348
g64
sS'windgod'
p1349
g7
sS'Blue'
p1350
g7
sS'Catholic'
p1351
g7
sS'Ancient'
p1352
g7
sS'interpretation'
p1353
g4
sS'help'
p1354
g7
sS'Colonial'
p1355
g4
sS'Smith'
p1356
g7
sS'trade'
p1357
g7
sS'city-state'
p1358
g7
sS'existence'
p1359
g4
sS'White'
p1360
g7
sS'worship'
p1361
g22
sS'tezcatlipoca'
p1362
g7
sS'style'
p1363
g7
sS'group'
p1364
g7
sS'Taube'
p1365
g7
sS'Guatemala'
p1366
g7
sS'remorse'
p1367
g7
sS'World'
p1368
g7
sS'priesthood'
p1369
g7
sS'ally'
p1370
g7
sS'whirlpool'
p1371
g7
sS'V'
p1372
g7
sS'evening'
p1373
g7
sS'return'
p1374
g18
sS'Dominican'
p1375
g7
sS'Mesoamerica'
p1376
g22
sS'Michael'
p1377
g7
sS'framework'
p1378
g7
sS'Rome'
p1379
g7
sS'snake'
p1380
g18
sS'President'
p1381
g7
sS'Venus'
p1382
S'10'
p1383
sS'day'
p1384
g4
sS'association'
p1385
g7
sS'Xolotl'
p1386
g18
sS'name'
p1387
g308
sS'Mormons'
p1388
g7
sS'arrow'
p1389
g7
sS'Quetzalcoatl/Cort'
p1390
g7
sS'bone'
p1391
g4
sS'burial'
p1392
g7
sS'Museum'
p1393
g4
sS'spider'
p1394
g7
sS'psychopomp'
p1395
g7
sS'year'
p1396
g48
sS'talisman'
p1397
g7
sS'dawn'
p1398
g48
sS'event'
p1399
g7
sS'E.'
p1400
g7
sS'Motolinia'
p1401
g7
sS'god'
p1402
S'23'
p1403
sS'priest'
p1404
g10
sS'millennium'
p1405
g7
sS'Toribio'
p1406
g7
sS'eagle'
p1407
g7
sS'theory'
p1408
g4
sS'serpent'
p1409
S'37'
p1410
sS'Quetzalcoatl-Cort\xc3\xa9s'
p1411
g7
sS'beginning'
p1412
g4
sS'publication'
p1413
g7
sS'El'
p1414
g7
sS'fertility'
p1415
g18
sS'language'
p1416
g4
sS'ministry'
p1417
g7
sS'National'
p1418
g7
sS'transgressor'
p1419
g7
sS'Jesus'
p1420
g18
sS'turn'
p1421
g7
sS'Nahuas'
p1422
g7
sS'Endowment'
p1423
g7
sS'mankind'
p1424
g4
sS'origin'
p1425
g7
sS'Humanities'
p1426
g7
sS'subtlety'
p1427
g7
sS'Historian'
p1428
g7
sS'number'
p1429
g4
sS'Itz\xc3\xa1'
p1430
g4
sS'city'
p1431
g4
sS'story'
p1432
g308
sS'North'
p1433
g7
sS'monkey'
p1434
g7
sS'Eastern'
p1435
g7
sS'historian'
p1436
g48
sS'system'
p1437
g4
sS'farming'
p1438
g7
sS'giver'
p1439
g7
sS'shell'
p1440
g7
sS'relationship'
p1441
g4
sS'season'
p1442
g7
sS'Zapotecs'
p1443
g7
sS'part'
p1444
g18
sS'boundary-maker'
p1445
g7
sS'constituent'
p1446
g7
sS'inventor'
p1447
g7
sS'Mesoamericans'
p1448
g7
sS'mercy'
p1449
g7
sS'kind'
p1450
g7
sS'warfare'
p1451
g7
sS'tree'
p1452
g7
sS'coatl'
p1453
g7
sS'matter'
p1454
g7
sS'Xochiquetzal'
p1455
g7
sS'Fray'
p1456
g7
sS'reproduction'
p1457
g7
sS'Pohl'
p1458
g4
sS'cacique'
p1459
g7
sS'Chich\xc3\xa9n'
p1460
g4
sS'Tula'
p1461
g7
sS'onteol'
p1462
g7
sS'macaw'
p1463
g7
sS'Yaxchilan'
p1464
g7
sS'God'
p1465
g7
sS'pantheon'
p1466
g7
sS'Tezcatlipocas'
p1467
g7
sS'dragon'
p1468
g7
sS'form'
p1469
g18
sS'foreigner'
p1470
g7
sS'Virginia'
p1471
g7
sS'lamanitish'
p1472
g7
sS'majority'
p1473
g7
sS'belief'
p1474
g64
sS'Townsend'
p1475
g7
sS'Mormonism'
p1476
g7
sS'pilgrimage'
p1477
g7
sS'pain'
p1478
g7
sS'opposite'
p1479
g7
sS'Puebla'
p1480
g18
sS'letter'
p1481
g7
sS'nothing'
p1482
g7
sS'Vision'
p1483
g4
sS'D.'
p1484
g7
sS'Huitzilopochtli'
p1485
g4
sS'popularity'
p1486
g7
sS'acatl'
p1487
g7
sS'face'
p1488
g7
sS'sun'
p1489
g4
sS'Earth'
p1490
g7
sS'gold'
p1491
g7
sS'Venta'
p1492
g7
sS'area'
p1493
g18
sS'Sahag\xc3\xban'
p1494
g7
sS'relation'
p1495
g7
sS'Ganges'
p1496
g7
sS'earth'
p1497
g7
sS'debate'
p1498
g7
sS'divinity'
p1499
g7
sS'knowledge'
p1500
g4
sS'title'
p1501
g48
sS'justice'
p1502
g7
sS'cache'
p1503
g7
sS'Mictlan'
p1504
g7
sS'factor'
p1505
g7
sS'Brant'
p1506
g7
sS'continuity'
p1507
g7
sS'king'
p1508
g7
sS'Lockhart'
p1509
g7
sS'child'
p1510
g4
sS'Alliance'
p1511
g7
sS'hieroglyph'
p1512
g7
sS'evangelization'
p1513
g7
sS'morning'
p1514
g48
sS'motherhood'
p1515
g7
sS'paper'
p1516
g7
sS'Florentine'
p1517
g7
sS'Topiltzin'
p1518
g7
sS'archaeologist'
p1519
g7
sS'womb'
p1520
g7
sS'vision'
p1521
g4
sS'view'
p1522
g4
sS'chimalman'
p1523
g7
sS'art'
p1524
g7
sS'creator'
p1525
g4
sS'Ger\xc3\xb3nimo'
p1526
g7
sS'Christianity'
p1527
g4
sS'culture'
p1528
S'10'
p1529
sS'legacy'
p1530
g7
sS'calendar'
p1531
g4
sS'John'
p1532
g4
sS'deity'
p1533
S'21'
p1534
sS'planet'
p1535
g48
sS'Ometecuhtli'
p1536
g7
sS'Bernardino'
p1537
g7
sS'pattern'
p1538
g7
sS'nature'
p1539
g4
sS'LDS'
p1540
g7
sS'identification'
p1541
g7
sS'Graulich'
p1542
g7
sS'Tenochtitlan'
p1543
g4
sS'arrival'
p1544
g4
sS'cihuacoatl'
p1545
g7
sS'importance'
p1546
g7
sS'Tony'
p1547
g7
sS'incident'
p1548
g7
sS'death'
p1549
g4
sS'ethno-historian'
p1550
g7
sS'Totec'
p1551
g7
sS'goddess'
p1552
g7
sS'astrologer'
p1553
g7
sS'priestess'
p1554
g7
sS'Cacaxtla'
p1555
g7
sS'connection'
p1556
g4
sS'comment'
p1557
g7
sS'Christ'
p1558
g4
sS'BCE'
p1559
g7
sS'period'
p1560
S'16'
p1561
sS'ce'
p1562
g4
sS'conquest'
p1563
g308
sS'Los'
p1564
g7
sS'twin'
p1565
g7
sS'learning'
p1566
g7
sS'Templo'
p1567
g7
sS'War'
p1568
g7
sS'Tlaxcala'
p1569
g7
sS'devil'
p1570
g7
sS'underworld'
p1571
g4
sS'basis'
p1572
g18
sS'seashell'
p1573
g7
sS'legend'
p1574
g10
sS'cort\xc3\xa9s'
p1575
g4
sS'spread'
p1576
g18
sS'meeting'
p1577
g7
sS'idol'
p1578
g7
sS'plateau'
p1579
g7
sS'direction'
p1580
g7
sS'Lyall'
p1581
g4
sS'diversity'
p1582
g7
sS'fire'
p1583
g7
sS'craft'
p1584
g7
sS'folklore'
p1585
g7
sS'declaration'
p1586
g7
sS'Michel'
p1587
g7
sS'Chimalman'
p1588
g4
sS'Serpent'
p1589
g48
sS'Classic'
p1590
g7
sS'appearance'
p1591
g7
sS'Ce'
p1592
g7
sS'Spain'
p1593
g7
sS'Church'
p1594
g7
sS'aid'
p1595
g7
sS'Taj\xc3\xadn'
p1596
g7
sS'p.'
p1597
g7
sS'City'
p1598
g7
sS'pyramid'
p1599
g7
sS'motif'
p1600
g7
sS'helper'
p1601
g7
sS'century'
p1602
g18
sS'speech'
p1603
g48
sS'site'
p1604
g48
sS'Xochicalco'
p1605
g18
sS'wound'
p1606
g7
sS'jewel'
p1607
g4
sS'complex'
p1608
g7
sS'Gukumatz'
p1609
g7
sS'ruler'
p1610
g22
sS'Restall'
p1611
g18
sS'party'
p1612
g7
sS'document'
p1613
g4
sS'conflict'
p1614
g7
sS'status'
p1615
g7
sS'Spaniards'
p1616
g4
sS'rain'
p1617
g4
sS'Angeles'
p1618
g7
sS'II'
p1619
g7
sS'triad'
p1620
g7
sS'dust'
p1621
g7
sS'judgment'
p1622
g7
sS'cycle'
p1623
g7
sS'center'
p1624
g22
sS'person'
p1625
g7
sS'Karl'
p1626
g7
sS'scholarship'
p1627
g7
sS'being'
p1628
g7
sS'Cave'
p1629
g7
sS'aspect'
p1630
g7
sS'pohl'
p1631
g7
sS'continent'
p1632
g7
sS'cut'
p1633
g7
sS'field'
p1634
g7
sS'Shearer'
p1635
g7
sS'sky'
p1636
g18
sS'Victoria'
p1637
g7
sS'source'
p1638
g308
sS'book'
p1639
g18
sS'exhibition'
p1640
g7
sS'Ciudadela'
p1641
g7
sS'confederacy'
p1642
g4
sS'kingdom'
p1643
g7
sS'myth'
p1644
g10
sS'James'
p1645
g7
sS'birth'
p1646
g4
sS'symbolism'
p1647
g7
sS'world'
p1648
g4
sS'Art'
p1649
g4
sS'B.'
p1650
g7
sS'Mazatec'
p1651
g7
sS'ehecatl'
p1652
g4
sS'lightning'
p1653
g7
sS'superiority'
p1654
g7
sS'night'
p1655
g7
sS'Way'
p1656
g7
sS'people'
p1657
g7
sS'spring'
p1658
g7
sS'creation'
p1659
g7
sS'chronology'
p1660
g4
sS'Tlamacazqui'
p1661
g7
sS'Xipe'
p1662
g7
sS'god-ruler'
p1663
g7
sS'Stela'
p1664
g7
sS'informant'
p1665
g7
sS'transport'
p1666
g7
sS'Life'
p1667
g7
sS'Hern\xc3\xa1n'
p1668
g4
sS'hurricane'
p1669
g7
sS'rattlesnake'
p1670
g7
sS'Mendieta'
p1671
g7
sS'religion'
p1672
g7
sS'civilization'
p1673
g18
sS'Mankind'
p1674
g7
sS'temple'
p1675
g4
sS'knife'
p1676
g7
sS'bc'
p1677
g4
sS'corn'
p1678
g7
sS'Nicholson'
p1679
g7
sS'expansion'
p1680
g7
sS'David'
p1681
g4
sS'pressure'
p1682
g7
sS'resurrection'
p1683
g4
sS'Emperor'
p1684
g7
sS'throne'
p1685
g7
sS'faith'
p1686
g7
sS'sister'
p1687
g7
sS'earlobe'
p1688
g7
sS'H.'
p1689
g7
sS'Urban'
p1690
g7
sS'Aztecs'
p1691
g48
sS'tongue'
p1692
g7
sS'documentary'
p1693
g7
sS'Mayor'
p1694
g7
sS'Gillespie'
p1695
g7
sS'reptile'
p1696
g7
sS'Dallas'
p1697
g7
sS'image'
p1698
g7
sS'son'
p1699
g4
sS'doctrine'
p1700
g7
sS'portrayal'
p1701
g7
sS'maize'
p1702
g18
sS'renewal'
p1703
g4
sS'support'
p1704
g7
sS'question'
p1705
g7
sS'Mixcoatl'
p1706
g4
sS'South'
p1707
g7
sS'way'
p1708
g7
sS'West'
p1709
g4
sS'politeness'
p1710
g7
sS'war'
p1711
g18
sS'function'
p1712
g7
sS'head'
p1713
g7
sS'offering'
p1714
g7
sS'landing'
p1715
g7
sS'idea'
p1716
g4
sS'link'
p1717
g7
sS'auxiliary'
p1718
g7
sS'admiration'
p1719
g7
sS'monopoly'
p1720
g7
sS'County'
p1721
g7
sS'record'
p1722
g7
sS'Tlaloc'
p1723
g18
sS'ruling'
p1724
g7
sS'Benavente'
p1725
g7
sS'2003b'
p1726
g7
sS'gullibility'
p1727
g7
sS'Enrique'
p1728
g7
sS'2003a'
p1729
g7
sS'insignia'
p1730
g7
sS'Tezcatlipoca'
p1731
g22
sS'mediation'
p1732
g7
sS'ad'
p1733
g48
sS'Louise'
p1734
g7
sS'overland'
p1735
g7
sS'influence'
p1736
g7
sS'life'
p1737
g48
sS'Camilla'
p1738
g7
sS'New'
p1739
g18
sS'empire'
p1740
g4
sS'Tollan'
p1741
g7
sS'codex'
p1742
g4
sS'Mormon'
p1743
g7
sS'Burkhart'
p1744
g7
sS'flood'
p1745
g7
sS'other'
p1746
g4
sS'role'
p1747
g7
sS'Savior'
p1748
g4
sS'conclusion'
p1749
g7
sS'cleric'
p1750
g7
sS'star'
p1751
g308
sS'faction'
p1752
g4
sS'Fields'
p1753
g4
sS'symbol'
p1754
g398
sS'time'
p1755
g10
sS'meaning'
p1756
g18
sS'veneration'
p1757
g7
sS'intent'
p1758
g7
sS'Milky'
p1759
g7
sS'structure'
p1760
g7
sS'quetzal'
p1761
g7
sS'Charles'
p1762
g7
sS'mask'
p1763
g7
sS'narrative'
p1764
g4
sS'Empire'
p1765
g7
ssS'quantum_mechanics'
p1766
(dp1767
S'concept'
p1768
g18
sS'founder'
p1769
g7
sS'fig.'
p1770
g7
sS'lack'
p1771
g4
sS'chaos'
p1772
g4
sS'commute'
p1773
g7
sS'Theorem'
p1774
g7
sS'Euler'
p1775
g4
sS'formula_12'
p1776
g7
sS'formula_13'
p1777
g7
sS'Klein'
p1778
g7
sS'flash'
p1779
g7
sS'topic'
p1780
g18
sS'device'
p1781
g18
sS'decomposition'
p1782
g7
sS'norm'
p1783
g7
sS'Prize'
p1784
g18
sS'rise'
p1785
g4
sS'choice'
p1786
g4
sS'Erwin'
p1787
g18
sS'electron'
p1788
S'17'
p1789
sS'\xce\xbd'
p1790
g7
sS'Henry'
p1791
g7
sS'difference'
p1792
g18
sS'condition'
p1793
g4
sS'Thomas'
p1794
g7
sS'level'
p1795
g48
sS'transmission'
p1796
g4
sS'issue'
p1797
g18
sS'solution'
p1798
g22
sS'magnet'
p1799
g7
sS'p'
p1800
g7
sS'vector'
p1801
g10
sS'phase'
p1802
g18
sS'study'
p1803
g10
sS'speculation'
p1804
g7
sS'Carlo'
p1805
g7
sS'Quantum'
p1806
S'23'
p1807
sS'force'
p1808
S'18'
p1809
sS'occurrence'
p1810
g7
sS'coefficient'
p1811
g4
sS'Gravity'
p1812
g7
sS'approximation'
p1813
g48
sS'zero'
p1814
g7
sS'invention'
p1815
g4
sS'Latin'
p1816
g7
sS'apparatus'
p1817
g48
sS'Wolfgang'
p1818
g4
sS'sum'
p1819
g7
sS'Kirchhoff'
p1820
g7
sS'current'
p1821
g7
sS'version'
p1822
g4
sS'microchip'
p1823
g7
sS'method'
p1824
g48
sS'contrast'
p1825
g7
sS'body'
p1826
g7
sS'Heisenberg'
p1827
g398
sS'degree'
p1828
g4
sS'component'
p1829
g7
sS'teleportation'
p1830
g7
sS'understanding'
p1831
g7
sS'behaviour'
p1832
g7
sS'Feynman'
p1833
g4
sS'Arthur'
p1834
g4
sS'Millikan'
p1835
g7
sS'possibility'
p1836
g4
sS'granularity'
p1837
g4
sS'consideration'
p1838
g7
sS'superconductor'
p1839
g7
sS'knowledge'
p1840
g7
sS'Superfluidity'
p1841
g7
sS'search'
p1842
g7
sS'property'
p1843
g308
sS'k'
p1844
g4
sS'Planck'
p1845
S'15'
p1846
sS'Born'
p1847
g22
sS'amount'
p1848
g7
sS'suggestion'
p1849
g7
sS'action'
p1850
g4
sS'opinion'
p1851
g7
sS'spacetime'
p1852
g18
sS'honor'
p1853
g7
sS'technique'
p1854
g4
sS'de.pons.eu'
p1855
g7
sS'Robert'
p1856
g4
sS'gluon'
p1857
g7
sS'\xe2\x88\x92'
p1858
g7
sS'Huygens'
p1859
g7
sS'bra'
p1860
g7
sS'use'
p1861
g4
sS'Sommerfeld'
p1862
g4
sS'Pieter'
p1863
g7
sS'process'
p1864
g22
sS'Loop'
p1865
g4
sS'memory'
p1866
g48
sS'today'
p1867
g7
sS'particle-in-a-box'
p1868
g7
sS'duality'
p1869
g18
sS'emission'
p1870
g4
sS'award'
p1871
g7
sS'effort'
p1872
g7
sS'1990'
p1873
g7
sS'word'
p1874
g48
sS'Neumann'
p1875
g18
sS'science'
p1876
g7
sS'equation'
p1877
S'14'
p1878
sS'work'
p1879
g48
sS'oscillator'
p1880
g308
sS'believer'
p1881
g7
sS'oxide'
p1882
g7
sS'mechanic'
p1883
S'105'
p1884
sS'certainty'
p1885
g4
sS'history'
p1886
g7
sS'claim'
p1887
g4
sS'radiance'
p1888
g7
sS'superlattice'
p1889
g7
sS'calculation'
p1890
g18
sS'Wien'
p1891
g18
sS'chip'
p1892
g7
sS'self-adjoint'
p1893
g7
sS'minimum'
p1894
g7
sS'sense'
p1895
g7
sS'hydrogen'
p1896
g22
sS'biography'
p1897
g7
sS'string'
p1898
g48
sS'motion'
p1899
g18
sS'Broglie'
p1900
g4
sS'end'
p1901
g4
sS'cryptography'
p1902
g4
sS'technology'
p1903
g4
sS'feature'
p1904
g18
sS'arrangement'
p1905
g7
sS'chemical'
p1906
g7
sS'Jordan'
p1907
g7
sS'answer'
p1908
g7
sS'Hilbert'
p1909
g64
sS'product'
p1910
g7
sS'description'
p1911
g308
sS'information'
p1912
g398
sS'ladder'
p1913
g7
sS'Compton'
p1914
g4
sS'collection'
p1915
g7
sS'Laue'
p1916
g7
sS'plane'
p1917
g4
sS'law'
p1918
g308
sS'response'
p1919
g7
sS'man'
p1920
g7
sS'attempt'
p1921
g398
sS'liquid'
p1922
g7
sS'Maxwell'
p1923
g7
sS'cosmology'
p1924
g7
sS'switch'
p1925
g7
sS'correlation'
p1926
g7
sS'order'
p1927
g18
sS'interpretation'
p1928
S'17'
p1929
sS'eigen'
p1930
g7
sS'insight'
p1931
g4
sS'entity'
p1932
g7
sS'stability'
p1933
g4
sS'paper'
p1934
g4
sS'Hermann'
p1935
g7
sS'Ludwig'
p1936
g4
sS'Scientific'
p1937
g7
sS'relativity'
p1938
g64
sS'attraction'
p1939
g7
sS'derivative'
p1940
g4
sS'correspondence'
p1941
g10
sS'combination'
p1942
g7
sS'material'
p1943
g18
sS'Michael'
p1944
g7
sS'randomness'
p1945
g7
sS'functional'
p1946
g7
sS'renunciation'
p1947
g7
sS'MRI'
p1948
g7
sS'half'
p1949
g7
sS'inception'
p1950
g4
sS'Satyendra'
p1951
g4
sS'eigenvalue'
p1952
g10
sS'term'
p1953
g48
sS'name'
p1954
g7
sS'Everything'
p1955
g18
sS'Newton'
p1956
g7
sS'inequality'
p1957
g7
sS'realism'
p1958
g7
sS'domain'
p1959
g7
sS'square'
p1960
g7
sS'series'
p1961
g7
sS'energy'
p1962
S'43'
p1963
sS'plant'
p1964
g7
sS'society'
p1965
g7
sS'frequency'
p1966
g48
sS'Contours'
p1967
g7
sS'Glashow'
p1968
g7
sS'year'
p1969
g4
sS'quantum'
p1970
S'167'
p1971
sS'wavelength'
p1972
g7
sS'operation'
p1973
g7
sS'Gustav'
p1974
g7
sS'Incompleteness'
p1975
g7
sS'network'
p1976
g48
sS'space'
p1977
S'26'
p1978
sS'Everett'
p1979
g4
sS'interference'
p1980
g4
sS'microscope'
p1981
g7
sS'research'
p1982
g4
sS'semiconductor'
p1983
g7
sS'Werner'
p1984
g48
sS'amplitude'
p1985
g64
sS'lecture'
p1986
g7
sS'electronics'
p1987
g4
sS'cause'
p1988
g7
sS'foundation'
p1989
g7
sS'theory'
p1990
S'68'
p1991
sS'barrier'
p1992
g4
sS'circumstance'
p1993
g7
sS'million'
p1994
g7
sS'isotope'
p1995
g7
sS'quark'
p1996
g7
sS'difficulty'
p1997
g7
sS'Weinberg'
p1998
g4
sS'imaging'
p1999
g7
sS'Paul'
p2000
g10
sS'temperature'
p2001
g48
sS'interaction'
p2002
g48
sS'geometry'
p2003
g7
sS'optics'
p2004
g7
sS'counterpart'
p2005
g7
sS'length'
p2006
g10
sS'place'
p2007
g7
sS'consequence'
p2008
g18
sS'Faraday'
p2009
g7
sS'neglect'
p2010
g7
sS'symmetry'
p2011
g7
sS'researcher'
p2012
g7
sS'Alain'
p2013
g7
sS'wave'
p2014
S'41'
p2015
sS'number'
p2016
g64
sS'reductionism'
p2017
g7
sS'entanglement'
p2018
g48
sS'quality'
p2019
g7
sS'size'
p2020
g7
sS'perturbation'
p2021
g7
sS'observer'
p2022
g18
sS'system'
p2023
S'41'
p2024
sS'assumption'
p2025
g4
sS'statement'
p2026
g4
sS'toe'
p2027
g18
sS'collapse'
p2028
g48
sS'relationship'
p2029
g7
sS'explanation'
p2030
g7
sS'nobody'
p2031
g7
sS'prediction'
p2032
g308
sS'part'
p2033
g7
sS'manifestation'
p2034
g7
sS'center'
p2035
g7
sS'distance'
p2036
g4
sS'b'
p2037
g7
sS'm-theory'
p2038
g7
sS'accordance'
p2039
g7
sS'annihilation'
p2040
g7
sS'superfluid'
p2041
g7
sS'Wilhelm'
p2042
g4
sS'contrary'
p2043
g7
sS'Aspect'
p2044
g7
sS'light'
p2045
g398
sS'posit'
p2046
g7
sS'Peter'
p2047
g7
sS'photosynthesis'
p2048
g7
sS'Richard'
p2049
g7
sS'God'
p2050
g7
sS'spectrum'
p2051
g4
sS'generalization'
p2052
g7
sS'conjugate'
p2053
g10
sS'element'
p2054
g48
sS'well'
p2055
g48
sS'ray'
p2056
g7
sS'realm'
p2057
g4
sS'Albert'
p2058
g10
sS'gravity'
p2059
S'12'
p2060
sS'note'
p2061
g7
sS'instance'
p2062
g18
sS'emphasis'
p2063
g7
sS'potential'
p2064
g48
sS'Pascual'
p2065
g7
sS'performance'
p2066
g7
sS'modulus'
p2067
g7
sS'tool'
p2068
g7
sS'accuracy'
p2069
g18
sS'transistor'
p2070
g4
sS'multiple'
p2071
g7
sS'reality'
p2072
g48
sS'probability'
p2073
S'30'
p2074
sS'outcome'
p2075
g4
sS'molecule'
p2076
g18
sS'position'
p2077
S'25'
p2078
sS'nothing'
p2079
g7
sS'Bohr'
p2080
g308
sS'class'
p2081
g7
sS'inconsistency'
p2082
g7
sS'observation'
p2083
g18
sS'Hermite'
p2084
g7
sS'average'
p2085
g7
sg449
g7
sS'drive'
p2086
g7
sS'kl'
p2087
g7
sS'principle'
p2088
g64
sS'velocity'
p2089
g7
sS'Copenhagen'
p2090
g10
sS'left'
p2091
g7
sS'organism'
p2092
g7
sS'Leonhard'
p2093
g7
sS'fact'
p2094
g4
sS'quantity'
p2095
g4
sS'phenomenon'
p2096
g64
sS'festschrift'
p2097
g7
sS'manipulation'
p2098
g7
sS'Moseley'
p2099
g7
sS'chromodynamic'
p2100
g7
sS'gauge'
p2101
g7
sS'Abdus'
p2102
g7
sS'Stephen'
p2103
g4
sS'analogue'
p2104
g7
sS'multiverse'
p2105
g7
sS'debate'
p2106
g18
sS'decade'
p2107
g18
sS'ground'
p2108
g4
sS'Raman'
p2109
g7
sS'Freeman'
p2110
g7
sS'causality'
p2111
g18
sS'dice'
p2112
g7
sS'title'
p2113
g7
sS'assertion'
p2114
g7
sS'Free'
p2115
g7
sS'\xcf\x80'
p2116
g7
sS'experiment'
p2117
S'10'
p2118
sS'factor'
p2119
g7
sS'axiom'
p2120
g4
sS'hope'
p2121
g7
sS'gev'
p2122
g4
sS'notation'
p2123
g7
sS'Louis'
p2124
g4
sS'de'
p2125
g7
sS'state'
p2126
S'42'
p2127
sS'evolution'
p2128
g48
sS'appeal'
p2129
g7
sS'h'
p2130
g4
sS'Bell'
p2131
g22
sS'microscopy'
p2132
g7
sS'banking'
p2133
g7
sS'J.'
p2134
g7
sS'scientist'
p2135
g18
sg487
g10
sS'implication'
p2136
g48
sS'qm'
p2137
g4
sS'view'
p2138
g4
sS'scanning'
p2139
g7
sS'set'
p2140
g7
sS'reference'
p2141
g4
sS'testing'
p2142
g7
sS'Rosen'
p2143
g48
sS'packet'
p2144
g398
sS'intensity'
p2145
g7
sS'computer'
p2146
g18
sS'result'
p2147
S'12'
p2148
sS'Pauli'
p2149
g4
sS'John'
p2150
g308
sS'nonlocality'
p2151
g7
sS'analog'
p2152
g7
sS'gravitation'
p2153
g7
sS'matter'
p2154
g308
sS'pattern'
p2155
g7
sS'nature'
p2156
S'11'
p2157
sS'diode'
p2158
g7
sS'Boltzmann'
p2159
g18
sS'polymath'
p2160
g7
sS'example'
p2161
S'16'
p2162
sS'incompatibility'
p2163
g4
sS'limit'
p2164
g308
sS'boundary'
p2165
g4
sS'approach'
p2166
g10
sS'discovery'
p2167
g18
sS'C.V.'
p2168
g7
sS'Debye'
p2169
g7
sS'Podolsky'
p2170
g48
sS'physicist'
p2171
S'10'
p2172
sS'incident'
p2173
g4
sS'hypothesis'
p2174
g48
sS'schr\xc3\xb6dinger'
p2175
g7
sS'article'
p2176
g7
sS'ket'
p2177
g7
sS'problem'
p2178
g10
sS'observable'
p2179
g22
sg99
g4
sS'Weyl'
p2180
g7
sS'instant'
p2181
g4
sS'goal'
p2182
g4
sS'region'
p2183
g10
sS'uncertainty'
p2184
g10
sS'quantization'
p2185
g10
sg108
g7
sS'context'
p2186
g7
sS'qubit'
p2187
g7
sS'expression'
p2188
g7
sS'point'
p2189
g4
sS'wall'
p2190
g4
sS'G\xc3\xb6del'
p2191
g4
sS'proton'
p2192
g4
sS'Nobel'
p2193
g48
sS'path'
p2194
g4
sS'polynomial'
p2195
g7
sS'table'
p2196
g7
sS'conference'
p2197
g7
sS'basis'
p2198
g7
sS'addition'
p2199
g7
sS'trajectory'
p2200
g7
sS'acceptance'
p2201
g4
sS'change'
p2202
g7
sS'fluctuation'
p2203
g7
sS'treatment'
p2204
g7
sS'box'
p2205
g22
sS'direction'
p2206
g7
sS'coherence'
p2207
g18
sS'gas'
p2208
g7
sS'precision'
p2209
g4
sS'Niels'
p2210
g10
sS'representative'
p2211
g7
sS'spin'
p2212
g48
sS'case'
p2213
g10
sS'exception'
p2214
g7
sS'laser'
p2215
g7
sS'value'
p2216
S'10'
p2217
sS'eigenstate'
p2218
S'22'
p2219
sS'trick'
p2220
g7
sS'Nath'
p2221
g4
sS'behavior'
p2222
S'12'
p2223
sS'determinism'
p2224
g7
sS'situation'
p2225
g7
sS'tunneling'
p2226
g22
sS'guide'
p2227
g7
sS'loop'
p2228
g4
sS'layer'
p2229
g7
sS'cell'
p2230
g7
sS'century'
p2231
g48
sS'von'
p2232
g48
sS'partner'
p2233
g7
sS'protein'
p2234
g7
sS'helium'
p2235
g7
sS'orbital'
p2236
g7
sS'Cramer'
p2237
g7
sS'atom'
p2238
S'16'
p2239
sS'radiation'
p2240
g64
sS'unity'
p2241
g7
sS'complex'
p2242
g18
sS'inquiry'
p2243
g7
sS'deference'
p2244
g7
sS'lqg'
p2245
g18
sS'neutron'
p2246
g7
sS'development'
p2247
g308
sS'restraint'
p2248
g7
sS'foam'
p2249
g7
sS'effect'
p2250
S'10'
p2251
sS'hand'
p2252
g4
sS'ion'
p2253
g7
sS'flurry'
p2254
g7
sS'postulation'
p2255
g7
sS'resonance'
p2256
g4
sS'workings'
p2257
g7
sS'paradox'
p2258
g10
sS'contribution'
p2259
g7
sS'bohr-einstein'
p2260
g7
sS'electromagnetism'
p2261
g48
sS'task'
p2262
g7
sS'reflection'
p2263
g7
sS'Figure'
p2264
g7
sS'framework'
p2265
g18
sS'colour'
p2266
g7
sS'epr'
p2267
g7
sS'thought'
p2268
g7
sS'Schr\xc3\xb6dinger'
p2269
S'11'
p2270
sS'inability'
p2271
g7
sS'unification'
p2272
g4
sS'model'
p2273
S'18'
p2274
sS'chemistry'
p2275
g64
sS'dimension'
p2276
g18
sS'Gordon'
p2277
g7
sS'enunciation'
p2278
g7
sS'summer'
p2279
g7
sS'Sheldon'
p2280
g7
sS'formula'
p2281
g4
sS'EPR'
p2282
g7
sS'rest'
p2283
g4
sS'shape'
p2284
g7
sS'aspect'
p2285
g22
sS'world'
p2286
g18
sS'formulum'
p2287
g7
sS'speed'
p2288
g7
sS'discipline'
p2289
g7
sS'Theory'
p2290
g48
sS'candidate'
p2291
g4
sS'field'
p2292
S'17'
p2293
sS'absorption'
p2294
g7
sS'blog'
p2295
g7
sS'thermodynamics'
p2296
g7
sS'location'
p2297
g7
sS'Bose'
p2298
g4
sS'transformation'
p2299
g7
sS'momentum'
p2300
S'18'
p2301
sS'Dirac'
p2302
g308
sS'government'
p2303
g7
sS'Salam'
p2304
g7
sS'quest'
p2305
g7
sS'Fermi'
p2306
g7
sS'integer'
p2307
g7
sS'bit'
p2308
g7
sS'loss'
p2309
g4
sg604
g7
sS'success'
p2310
g7
sS'Steven'
p2311
g4
sS'output'
p2312
g7
sS'</ref>'
p2313
g7
sS'replacement'
p2314
g7
sS'deviation'
p2315
g4
sS'deal'
p2316
g7
sS'people'
p2317
g7
sS'creation'
p2318
g4
sS'cathode'
p2319
g7
sS'critique'
p2320
g7
sS'Hamiltonians'
p2321
g7
sS'nonzero'
p2322
g7
sS'scale'
p2323
g308
sS'Enrico'
p2324
g7
sS'electrodynamics'
p2325
g18
sS'everything'
p2326
g18
sS'Witten'
p2327
g7
sS'inaccessibility'
p2328
g7
sS'unit'
p2329
g4
sS'object'
p2330
g10
sS'David'
p2331
g18
sS'step'
p2332
g7
sS'formula_2'
p2333
g7
sS'formula_8'
p2334
g7
sS'extension'
p2335
g7
sS'constraint'
p2336
g7
sS'universe'
p2337
g10
sS'Dyson'
p2338
g7
sS'bonding'
p2339
g4
sS'simulation'
p2340
g7
sS'range'
p2341
g7
sS'act'
p2342
g7
sS'Christiaan'
p2343
g7
sS'Rovelli'
p2344
g7
sS'Young'
p2345
g7
sS'pair'
p2346
g4
sS'receptor'
p2347
g7
sS'Hawking'
p2348
g4
sS'operator'
p2349
S'11'
p2350
sS'many-world'
p2351
g7
sS'statistics'
p2352
g7
sS'fabric'
p2353
g7
sS'area'
p2354
g18
sS'transfer'
p2355
g7
sS'Wheeler'
p2356
g7
sS'question'
p2357
g7
sS'way'
p2358
g4
sS'function'
p2359
S'15'
p2360
sS'form'
p2361
g18
sS'regard'
p2362
g7
sS'Zeeman'
p2363
g7
sS'idea'
p2364
g48
sS'cloud'
p2365
g18
sS'magnitude'
p2366
g7
sS'hn'
p2367
g7
sS'delta'
p2368
g7
sS'Interpretation'
p2369
g4
sS'eigendistribution'
p2370
g7
sS'particle'
p2371
S'54'
p2372
sS'exemplar'
p2373
g7
sS'Einstein'
p2374
S'17'
p2375
sS'distribution'
p2376
g10
sS'eigenvector'
p2377
g7
sS'constant'
p2378
g7
sS'flow'
p2379
g4
sS'measurement'
p2380
S'17'
p2381
sS'evidence'
p2382
g48
sS'Edward'
p2383
g7
sS'formulation'
p2384
S'15'
p2385
sS'formalism'
p2386
g18
sS'regime'
p2387
g4
sg567
g7
sS'objection'
p2388
g7
sS'Max'
p2389
S'10'
p2390
sS'wavefunction'
p2391
S'19'
p2392
sS'detail'
p2393
g7
sS'A.'
p2394
g7
sS'application'
p2395
g10
sS'other'
p2396
g18
sS'role'
p2397
S'10'
p2398
sS'branch'
p2399
g4
sS'test'
p2400
g7
sS'mathematics'
p2401
g7
sS'smell'
p2402
g7
sS'Solvay'
p2403
g7
sS'picture'
p2404
g7
sS'superposition'
p2405
g10
sS'superconductivity'
p2406
g7
sS'photon'
p2407
g398
sS'Arnold'
p2408
g4
sS'meaning'
p2409
g7
sS'nucleus'
p2410
g308
sS'variable'
p2411
g7
sS'structure'
p2412
g10
sS'matrix'
p2413
g10
sS'e'
p2414
g7
sS'coulomb'
p2415
g7
sS'physics'
p2416
S'26'
p2417
sS'orbit'
p2418
g4
sS'rule'
p2419
g18
sS'depth'
p2420
g7
sS'time'
p2421
S'22'
p2422
sS'decoherence'
p2423
g7
sS'resolution'
p2424
g7
sS'Hooke'
p2425
g7
ssS'q_cycle'
p2426
(dp2427
S'qh2'
p2428
g7
sS'chain'
p2429
g7
sS'BH'
p2430
g7
sS'propionate'
p2431
g7
sS'group'
p2432
g7
sS'coq10'
p2433
g4
sS'cytochrome'
p2434
g22
sS'heme'
p2435
g22
sS'electron'
p2436
S'12'
p2437
sS'ubiquinone'
p2438
g22
sg2130
g4
sS'l'
p2439
g18
sS'his182'
p2440
g7
sS'his181'
p2441
g7
sS'side'
p2442
g7
sS'qo'
p2443
g18
sS'bond'
p2444
g7
sS'reoxidation'
p2445
g7
sS'generation'
p2446
g4
sS'series'
p2447
g7
sS'b.'
p2448
g7
sS'result'
p2449
g7
sS'\xc2\xb0'
p2450
g7
sS'operation'
p2451
g7
sS'matrix'
p2452
g7
sS'space'
p2453
g18
sS'gradient'
p2454
g7
sS'intermembrane'
p2455
g18
sS'bl'
p2456
g7
sS'pump'
p2457
g7
sS'version'
p2458
g7
sS'membrane'
p2459
g4
sS'glu272'
p2460
g18
sS'movement'
p2461
g7
sS'EM'
p2462
g7
sS'qus'
p2463
g48
sS'lipid'
p2464
g7
sS'oxidation'
p2465
g48
sS'water'
p2466
g4
sS'step'
p2467
g7
sS'bilayer'
p2468
g7
sS'change'
p2469
g7
sS'reaction'
p2470
g22
sg99
g48
sS'turn'
p2471
g18
sS'carrier'
p2472
g7
sS'atp'
p2473
g7
sS'mitochondrium'
p2474
g7
sS'semiquinone'
p2475
g10
sS'radical'
p2476
g7
sS'proton'
p2477
g398
sS'addition'
p2478
g7
sS'transfer'
p2479
g18
sS'reduction'
p2480
g48
sS'Q10'
p2481
g7
sS'ph'
p2482
g7
sS'scheme'
p2483
g7
sS'form'
p2484
g7
sS'site'
p2485
g308
sS'c1'
p2486
g4
sS'case'
p2487
g7
sg2037
g10
sS'equation'
p2488
g7
sS'mv'
p2489
g4
sS'coqh2'
p2490
g7
sS'Peter'
p2491
g7
sS'process'
p2492
g4
sS'Rieske'
p2493
g4
sS'protein'
p2494
g10
sS'hydrogen'
p2495
g4
sS'Cytochrome'
p2496
g4
sS'mechanism'
p2497
g7
sS'Ubiquinol'
p2498
g7
sS'complex'
p2499
g64
sS'donor'
p2500
g7
sS'subunit'
p2501
g7
sS'Ubiquinone'
p2502
g7
sS'product'
p2503
g7
sS'molecule'
p2504
g18
sS'Q'
p2505
g398
sS'ubiquinol'
p2506
g10
sS'bonding'
p2507
g7
sS'fe'
p2508
g48
sS'Mitchell'
p2509
g4
sS'cycle'
p2510
g398
sS'D.'
p2511
g7
sS'Coenzyme'
p2512
g7
ssS'quantum_chromodynamics'
p2513
(dp2514
S'similarity'
p2515
g7
sS'entropy'
p2516
g7
sS'computation'
p2517
g48
sS'formula_10'
p2518
g7
sS'formula_11'
p2519
g7
sS'formula_12'
p2520
g7
sS'formula_13'
p2521
g7
sS'formula_14'
p2522
g7
sS'formula_15'
p2523
g7
sS'formula_16'
p2524
g7
sS'technique'
p2525
g4
sS'Standard'
p2526
g7
sS'charge'
p2527
S'17'
p2528
sS'G.'
p2529
g7
sS'AdS/CFT'
p2530
g7
sS'ingredient'
p2531
g7
sS'Prize'
p2532
g7
sS'supercomputer'
p2533
g7
sS'electron'
p2534
g7
sS'\xce\xbb'
p2535
g7
sS'\xce\xbc'
p2536
g7
sS'\xce\xbd'
p2537
g7
sS'word'
p2538
g10
sS'difference'
p2539
g4
sS'\xce\xb4'
p2540
g7
sS'Abrikosov'
p2541
g7
sS'condition'
p2542
g7
sS'prize'
p2543
g7
sS'level'
p2544
g4
sS'vector'
p2545
g48
sS'Tavchelidze'
p2546
g7
sS'George'
p2547
g7
sS'force'
p2548
g22
sS'occurrence'
p2549
g7
sS'punning'
p2550
g7
sS'prediction'
p2551
g48
sS'sign'
p2552
g7
sS'approximation'
p2553
g7
sS'invention'
p2554
g7
sS'dynamics'
p2555
g7
sS'flux-line'
p2556
g7
sS'index'
p2557
g4
sS'Faddeev'
p2558
g7
sS'section'
p2559
g7
sS'sul'
p2560
g7
sS'suv'
p2561
g7
sS'version'
p2562
g18
sS'sur'
p2563
g7
sS'net'
p2564
g7
sS'method'
p2565
g18
sS'contrast'
p2566
g48
sS'body'
p2567
g7
sS'degree'
p2568
g10
sS'theorist'
p2569
g7
sS'behaviour'
p2570
g22
sS'Feynman'
p2571
g10
sS'magnetism'
p2572
g7
sS'pub'
p2573
g7
sS'Clay'
p2574
g7
sS'path'
p2575
g4
sS'superconductor'
p2576
g7
sS'search'
p2577
g7
sS'l+r'
p2578
g7
sS'suggestion'
p2579
g7
sS'history'
p2580
g4
sS'spacetime'
p2581
g18
sS'punishment'
p2582
g7
sS'r.h.s.'
p2583
g7
sS'projection'
p2584
g7
sS'polymer'
p2585
g4
sS'Lagrangian'
p2586
g10
sS'gluon'
p2587
S'20'
p2588
sS'1/n'
p2589
g4
sS'quenching'
p2590
g7
sS'handedness'
p2591
g7
sS'June'
p2592
g7
sS'hadron'
p2593
S'12'
p2594
sS'qcd'
p2595
S'17'
p2596
sS'scope'
p2597
g7
sS'type'
p2598
g4
sS'Greenberg'
p2599
g7
sS'duality'
p2600
g4
sS'Hamiltonian'
p2601
g7
sS'Politzer'
p2602
g7
sS'Moo-Young'
p2603
g7
sS'\xce\xbc\xce\xbd'
p2604
g7
sS'Wigner'
p2605
g7
sS'f'
p2606
g7
sS'work'
p2607
g18
sS'SU'
p2608
S'14'
p2609
sS'Mister'
p2610
g7
sS'example'
p2611
g7
sS'proof'
p2612
g7
sS'claim'
p2613
g7
sS'\xcf\x87\xcf\x81\xcf\x8e\xce\xbc\xce\xb1'
p2614
g7
sS'renormalization'
p2615
g7
sS'Shenker'
p2616
g7
sS'topic'
p2617
g7
sS'sense'
p2618
g7
sS'phrase'
p2619
g7
sS'PETRA'
p2620
g4
sS'string'
p2621
g4
sS'motion'
p2622
g7
sS'discussion'
p2623
g7
sS'breaking'
p2624
g4
sS'feature'
p2625
g7
sS'arrangement'
p2626
g7
sS'chemical'
p2627
g7
sS'rightaway'
p2628
g7
sS'parameter'
p2629
g4
sS'product'
p2630
g48
sS'rise'
p2631
g4
sS'description'
p2632
g7
sS'variant'
p2633
g7
sS'diagram'
p2634
g4
sS'date'
p2635
g7
sS'Model'
p2636
g7
sS'law'
p2637
g4
sS'fm'
p2638
g7
sS'CERN'
p2639
g7
sS'light'
p2640
g7
sS'su'
p2641
g10
sS'element'
p2642
g4
sS'annealing'
p2643
g7
sS'correlation'
p2644
g48
sS'representation'
p2645
g398
sS'order'
p2646
g4
sS'Wilson'
p2647
g22
sS'Zweig'
p2648
g7
sS'claimant'
p2649
g7
sS'consent'
p2650
g7
sS'insight'
p2651
g18
sS'scientist'
p2652
g7
sS'existence'
p2653
g18
sS'group'
p2654
S'16'
p2655
sS'exclusion'
p2656
g7
sS'Yuval'
p2657
g7
sS'decay'
p2658
g4
sS'vicinity'
p2659
g7
sS'boson'
p2660
g48
sS'absence'
p2661
g4
sS'correspondence'
p2662
g7
sS'combination'
p2663
g7
sS'elasticity'
p2664
g7
sS'band'
p2665
g4
sS'penetration'
p2666
g7
sS'Gell-Mann'
p2667
S'10'
p2668
sS'rotation'
p2669
g4
sS'term'
p2670
g10
sS'magnitude'
p2671
g7
sS'side'
p2672
g7
sS'spinor'
p2673
g7
sS'accelerator'
p2674
g7
sS'series'
p2675
g7
sS'energy'
p2676
S'12'
p2677
sS'isospin'
p2678
g48
sS'measure'
p2679
g7
sS'quantum'
p2680
S'17'
p2681
sS'wavelength'
p2682
g7
sS'Tavkhelidze'
p2683
g7
sS'event'
p2684
g4
sS'matrix'
p2685
g18
sS'Nishijima'
p2686
g7
sS'lagrangian'
p2687
g7
sS'research'
p2688
g7
sS'increase'
p2689
g7
sS'Lorentz'
p2690
g7
sS'rc'
p2691
g18
sS'red'
p2692
g7
sS'Mattis'
p2693
g18
sS'theory'
p2694
S'42'
p2695
sS'Muster'
p2696
g4
sS'possibility'
p2697
g7
sS'quark'
p2698
S'56'
p2699
sS'quart'
p2700
g7
sS'formation'
p2701
g4
sS'W'
p2702
g4
sS's-matrix'
p2703
g4
sS'beginning'
p2704
g7
sS'definition'
p2705
g4
sS'interaction'
p2706
S'13'
p2707
sS'Dictionary'
p2708
g7
sS'g'
p2709
g7
sS'transition'
p2710
g7
sS'Fradkin'
p2711
g7
sS'thing'
p2712
g7
sS'length'
p2713
g4
sS'signature'
p2714
g7
sS'consequence'
p2715
g7
sS'student'
p2716
g7
sS'symmetry'
p2717
S'25'
p2718
sS'number'
p2719
S'10'
p2720
sS'antiquark'
p2721
g18
sS'Boris'
p2722
g48
sS'perturbation'
p2723
g18
sS'Jona-Lasinio'
p2724
g22
sS'temperature'
p2725
g7
sS'jet'
p2726
g7
sS'unitarity'
p2727
g7
sS'condensate'
p2728
g4
sS'system'
p2729
g48
sS'construct'
p2730
g7
sS'\xc3\xa4'
p2731
g7
sS'statement'
p2732
g7
sS'scheme'
p2733
g7
sS'\xc3\xb4'
p2734
g7
sS'frustration'
p2735
g18
sS'baryon'
p2736
g18
sS'QED'
p2737
g4
sS'part'
p2738
g48
sS'Polyakov'
p2739
g4
sS'diffusion'
p2740
g7
sS'distance'
p2741
g22
sS'kind'
p2742
g10
sg2037
g4
sS'bed'
p2743
g7
sS'matter'
p2744
g18
sS'Richard'
p2745
g7
sS'footnote'
p2746
g7
sS'electrodynamics'
p2747
g48
sS'correction'
p2748
g7
sS'spectrum'
p2749
g7
sS'glass'
p2750
g308
sS'Sakata'
p2751
g7
sS'Albert'
p2752
g4
sS'potential'
p2753
g7
sS'spin-glass'
p2754
g7
sS'analogy'
p2755
g18
sS'interior'
p2756
g18
sS'opposite'
p2757
g7
sS'Wegner'
p2758
g4
sS'object'
p2759
g7
sS'Nambu'
p2760
g398
sS'singlet'
p2761
g7
sS'rho'
p2762
g7
sS'nothing'
p2763
g4
sS'segment'
p2764
g7
sS'observation'
p2765
g4
sg449
g4
sS'lattice'
p2766
g64
sS'Gluon'
p2767
g7
sS'principle'
p2768
g4
sS'Joyce'
p2769
g48
sS'physics'
p2770
g398
sS'sum'
p2771
g7
sS'fact'
p2772
g10
sS'quantity'
p2773
g10
sS'phenomenon'
p2774
g4
sS'Han'
p2775
g4
sS'show'
p2776
g7
sS'Finnegans'
p2777
g7
sS'Chirality'
p2778
g7
sS'chromodynamic'
p2779
g10
sS'relation'
p2780
g48
sS'Heisenberg'
p2781
g7
sS'ratio'
p2782
g7
sS'\xcf\x89'
p2783
g7
sS'nucleon'
p2784
g7
sS'experiment'
p2785
g22
sS'factor'
p2786
g7
sS'means'
p2787
g7
sS'expectation'
p2788
g4
sS'chipt'
p2789
g4
sS'continuum'
p2790
g7
sS'W.'
p2791
g7
sS'cry'
p2792
g7
sS'bag'
p2793
g18
sS'Werner'
p2794
g7
sS'doublet'
p2795
g7
sS'set'
p2796
g4
sS'allusion'
p2797
g7
sS'Area'
p2798
g7
sS'H.C.'
p2799
g7
sS'radius'
p2800
g18
sS'result'
p2801
g4
sS'Pauli'
p2802
g7
sS'correspondendence'
p2803
g7
sS'analog'
p2804
g7
sS'subject'
p2805
g7
sS'tensor'
p2806
g4
sS'Huberman'
p2807
g7
sS'state'
p2808
g48
sS'limit'
p2809
g22
sS'approach'
p2810
S'10'
p2811
sS'discovery'
p2812
g7
sS'nature'
p2813
g7
sS'physicist'
p2814
g18
sS'premise'
p2815
g7
sS'article'
p2816
g4
sS'configuration'
p2817
g7
sS'problem'
p2818
g10
sS'Kazuhiko'
p2819
g7
sS'observable'
p2820
g7
sg99
g7
sS'nomenclature'
p2821
g7
sg108
g7
sS'und'
p2822
g7
sS'instanton'
p2823
g7
sS'context'
p2824
g7
sS'Dynamics'
p2825
g7
sS'ub'
p2826
g4
sS'extent'
p2827
g4
sS'point'
p2828
g7
sS'color'
p2829
S'17'
p2830
sS'aspect'
p2831
g4
sS'English'
p2832
g7
sS'community'
p2833
g7
sS'Nobel'
p2834
g7
sS'applicability'
p2835
g7
sS'conference'
p2836
g7
sS'ferromagnet'
p2837
g7
sS'pw'
p2838
g4
sS'thermodynamics'
p2839
g7
sS'addition'
p2840
g7
sS'discrimination'
p2841
g7
sS'chroma'
p2842
g7
sS"Ne'eman"
p2843
g7
sS'collaborator'
p2844
g7
sS'heavy-quarkonium'
p2845
g7
sS'anomaly'
p2846
g4
sS'direction'
p2847
g7
sS'photon'
p2848
g4
sS'remark'
p2849
g4
sS'confinement'
p2850
g398
sS'spin'
p2851
g64
sS'case'
p2852
g7
sS'novel'
p2853
g7
sS'Kenneth'
p2854
g7
sS'value'
p2855
g48
sg543
g7
sS'Quantum'
p2856
g7
sS'entropy-elasticity'
p2857
g7
sS'property'
p2858
g22
sS'loop'
p2859
S'13'
p2860
sS'Gross'
p2861
g7
sS'Italy'
p2862
g7
sS'Earwicker'
p2863
g7
sS'spin-1'
p2864
g7
sS'fermion'
p2865
g18
sS'connection'
p2866
g7
sS'complex'
p2867
g7
sS'split'
p2868
g7
sS'fabc'
p2869
g18
sS'Oxford'
p2870
g7
sS'ChiPT'
p2871
g7
sS'neutron'
p2872
g4
sS'development'
p2873
g7
sS'infinity'
p2874
g7
sS'stiffness'
p2875
g4
sS'Institute'
p2876
g7
sS'effect'
p2877
g7
sS'phd'
p2878
g7
sS'running'
p2879
g7
sS'strength'
p2880
g4
sS'purpose'
p2881
g7
sS'necessity'
p2882
g7
sS'http://www.aip.org/pnu/2005/split/731-1.html]'
p2883
g7
sS'invariance'
p2884
g7
sS'Struminsky'
p2885
g48
sS'analysis'
p2886
g7
sS'winner'
p2887
g7
sS'position'
p2888
g7
sS'model'
p2889
S'17'
p2890
sS'qcdoc'
p2891
g7
sS'Wilczek'
p2892
g7
sS'glueball'
p2893
g48
sS'human'
p2894
g7
sS'multiplet'
p2895
g7
sS'flavor'
p2896
S'14'
p2897
sS'glue'
p2898
g7
sS'scattering'
p2899
g18
sS'blow'
p2900
g7
sS'preprint'
p2901
g4
sS'Theory'
p2902
g7
sS'candidate'
p2903
g7
sS'density'
p2904
g7
sS'Oscar'
p2905
g7
sS'character'
p2906
g7
sS'source'
p2907
g7
sS'Yoichiro'
p2908
g7
sS'plasma'
p2909
g4
sS'transformation'
p2910
g7
sS'momentum'
p2911
g4
sS'Dirac'
p2912
g4
sS'situation'
p2913
g4
sS'James'
p2914
g4
sS'Popov'
p2915
g7
sS'Shoichi'
p2916
g7
sS'proton'
p2917
g4
sS'vacuum'
p2918
g22
sg604
g7
sS'particle'
p2919
S'24'
p2920
sS'chamber'
p2921
g4
sS'Nikolay'
p2922
g18
sS'London'
p2923
g7
sS'terminology'
p2924
g7
sS'qed'
p2925
g7
sS'b.'
p2926
g7
sS'Mark'
p2927
g18
sS'Trieste'
p2928
g7
sS'gauge'
p2929
S'16'
p2930
sS'interiour'
p2931
g7
sS'Eugene'
p2932
g7
sS'\xe2\x88\x92'
p2933
g7
sS'Frank'
p2934
g7
sS'octet'
p2935
g7
sS'\xce\xb5k'
p2936
g7
sS'\xce\xb5i'
p2937
g7
sS'Franz'
p2938
g7
sS'content'
p2939
g4
sS'bc'
p2940
g4
sS'expansion'
p2941
g10
sS'David'
p2942
g4
sS'paper'
p2943
g4
sS'formula_7'
p2944
g7
sS'formula_4'
p2945
g7
sS'formula_5'
p2946
g7
sS'formula_2'
p2947
g7
sS'formula_3'
p2948
g7
sS'formula_8'
p2949
g7
sS'formula_9'
p2950
g7
sS'freedom'
p2951
S'11'
p2952
sS'basis'
p2953
g7
sS'carrier'
p2954
g7
sS'meson'
p2955
g48
sS'letter'
p2956
g7
sS'strangeness'
p2957
g7
sS'chirality'
p2958
g7
sS'puzzle'
p2959
g7
sS'integral'
p2960
g7
sS'hypercharge'
p2961
g7
sS'phase'
p2962
g4
sS'Millennium'
p2963
g7
sS'parton'
p2964
g18
sS'operator'
p2965
g7
sS'area'
p2966
g4
sS'Bjorken'
p2967
g7
sS'editor'
p2968
g7
sS'way'
p2969
g7
sS'bubble'
p2970
g7
sS'function'
p2971
g4
sS'form'
p2972
g18
sS'\xce\xbbw'
p2973
g7
sS'Kondo'
p2974
g7
sS'link'
p2975
g7
sS'line'
p2976
g4
sS'SLAC'
p2977
g4
sS'hyperon'
p2978
g7
sS'Bogolyubov'
p2979
g18
sS'j'
p2980
g7
sS'Murray'
p2981
g4
sS'LEP'
p2982
g7
sS'exploration'
p2983
g7
sS'verification'
p2984
g7
sS'\xce\xb3\xce\xbc'
p2985
g7
sS'Loops'
p2986
g7
sS'distribution'
p2987
g7
sS'ua'
p2988
g4
sS'long-distance'
p2989
g7
sS'Modern'
p2990
g7
sS'constant'
p2991
g48
sS'year'
p2992
g7
sS'evidence'
p2993
g10
sS'QCD'
p2994
S'33'
p2995
sS'Mathematics'
p2996
g7
sg567
g7
sS'May'
p2997
g7
sS'cross-relation'
p2998
g4
sS'percent'
p2999
g7
sS'nf'
p3000
g48
sS'rubber'
p3001
g4
sS'field'
p3002
S'15'
p3003
sS'other'
p3004
g7
sS'role'
p3005
g4
sS'test'
p3006
g308
sS'mass'
p3007
S'10'
p3008
sS'deviation'
p3009
g7
sS'star'
p3010
g7
sS'excitation'
p3011
g7
sS'Fields'
p3012
g7
sS'symbol'
p3013
g7
sS'meaning'
p3014
g4
sS'scale'
p3015
g18
sS'variable'
p3016
g4
sS'omega'
p3017
g7
sS'structure'
p3018
g4
sS'ghost'
p3019
g7
sS'coupling'
p3020
g10
sS'pion'
p3021
g7
sS'Kei-Ichi'
p3022
g7
sS'space'
p3023
g7
sS'rule'
p3024
g48
sS'notion'
p3025
g308
sS'depth'
p3026
g7
sS'u'
p3027
g4
sS'time'
p3028
g7
ssS'qualia'
p3029
(dp3030
S'writings'
p3031
g7
sS'representationalism'
p3032
g7
sS'rejoinder'
p3033
g7
sS'proselytizer'
p3034
g7
sS'child'
p3035
g18
sS'datum'
p3036
g18
sS'Dennett'
p3037
S'18'
p3038
sS'concept'
p3039
g48
sS'theorist'
p3040
g7
sS'zone'
p3041
g4
sS'everything'
p3042
g18
sS'tv'
p3043
g7
sS'Marvin'
p3044
g4
sS'flash'
p3045
g7
sS'father'
p3046
g7
sS'program'
p3047
g7
sS'Western'
p3048
g7
sS'sens'
p3049
g7
sS'presentation'
p3050
g7
sS'case'
p3051
g10
sS'materialist'
p3052
g7
sS'rise'
p3053
g4
sS'misunderstanding'
p3054
g7
sS'wave'
p3055
g7
sS'Erwin'
p3056
g18
sS'psychologist'
p3057
g4
sS'difference'
p3058
g308
sS'condition'
p3059
g4
sS'pro/con'
p3060
g7
sS'Thomas'
p3061
g7
sS'cable'
p3062
g7
sS'level'
p3063
g308
sS'lisp'
p3064
g7
sS'list'
p3065
g48
sS'gensym'
p3066
g18
sS'race'
p3067
g7
sS'neurophysiologist'
p3068
g7
sS'car'
p3069
g7
sS'fortiorus'
p3070
g7
sS'neighborhood'
p3071
g7
sS'oscillation'
p3072
g18
sS'Howard'
p3073
g4
sS'sensation'
p3074
S'16'
p3075
sS'understanding'
p3076
g18
sS'sign'
p3077
g4
sS'perspective'
p3078
g18
sS'RoboMary'
p3079
g22
sS'theory'
p3080
g64
sS'residue'
p3081
g7
sS'Ryle'
p3082
g4
sS'Latin'
p3083
g4
sS'section'
p3084
g7
sS'supporter'
p3085
g10
sS'access'
p3086
g10
sS'acronym'
p3087
g7
sS'version'
p3088
g10
sS'Amoroso'
p3089
g7
sS'appeal'
p3090
g7
sS'method'
p3091
g4
sS'contrast'
p3092
g4
sS'Nietzsche'
p3093
g7
sS'justification'
p3094
g7
sS'degree'
p3095
g7
sS'leg'
p3096
g18
sS'component'
p3097
g18
sS'sound-wave'
p3098
g7
sS'asymmetry'
p3099
g7
sS'English'
p3100
g4
sS'path'
p3101
g7
sS'change'
p3102
g48
sS'Saul'
p3103
g7
sS'vividness'
p3104
g7
sS'property'
p3105
S'13'
p3106
sS'study'
p3107
g7
sS'shades'
p3108
g7
sS'contradiction'
p3109
g4
sS'example'
p3110
S'20'
p3111
sS'amount'
p3112
g7
sS'Quining'
p3113
g7
sS'action'
p3114
g7
sS'opinion'
p3115
g7
sS'criticism'
p3116
g10
sS'phosphene'
p3117
g4
sS'order'
p3118
g10
sS'S.'
p3119
g7
sS'limb'
p3120
g7
sS'legislator'
p3121
g7
sS'experimentation'
p3122
g7
sS'use'
p3123
g7
sS'Australia'
p3124
g7
sS'metaphor'
p3125
g7
sS'Maund'
p3126
g48
sS'duplicate'
p3127
g7
sS'camera'
p3128
g7
sS'memory'
p3129
g64
sS'color-lock'
p3130
g4
sS'stage'
p3131
g7
sS'type'
p3132
g4
sS'sort'
p3133
g4
sS'Llin\xc3\xa1s'
p3134
g18
sS'Qualia'
p3135
g64
sS'faith'
p3136
g18
sS'A.J.'
p3137
g7
sS'clue'
p3138
g4
sS'glass'
p3139
g18
sS'virtue'
p3140
g7
sS'impulse'
p3141
g7
sS'agnosic'
p3142
g7
sS'baby'
p3143
g7
sS'effort'
p3144
g7
sS'quale'
p3145
g22
sS'account'
p3146
g10
sS'movitype'
p3147
g7
sS'word'
p3148
g48
sS'room'
p3149
g398
sS'Locke'
p3150
g4
sS'science'
p3151
g7
sS'challenge'
p3152
g7
sS'work'
p3153
g7
sS'hope'
p3154
g7
sS'mechanic'
p3155
g7
sS'Minsky'
p3156
g4
sS'proof'
p3157
g4
sS'control'
p3158
g7
sS'claim'
p3159
g308
sS'figure'
p3160
g7
sS'process'
p3161
g4
sS'lock'
p3162
g7
sS'chip'
p3163
g7
sS'agent'
p3164
g7
sS'topic'
p3165
g7
sS'critic'
p3166
g7
sS'way'
p3167
S'17'
p3168
sS'something'
p3169
S'15'
p3170
sS'sense'
p3171
g398
sS'McDowell'
p3172
g7
sS'redness'
p3173
g398
sS'commonness'
p3174
g7
sS'information'
p3175
S'10'
p3176
sS'Revonsuo'
p3177
g4
sS'advantage'
p3178
g4
sS'thing'
p3179
S'15'
p3180
sS'Tye'
p3181
g10
sS'purpose'
p3182
g4
sS'comfort'
p3183
g7
sS'Irving'
p3184
g7
sS'Edmond'
p3185
g4
sS'criterion'
p3186
g4
sS'answer'
p3187
g4
sS'panic'
p3188
g7
sS'simplicity'
p3189
g7
sS'product'
p3190
g7
sS'description'
p3191
S'11'
p3192
sS'Lisp'
p3193
g7
sS'philosophy'
p3194
g10
sS'ball'
p3195
g7
sS'referent'
p3196
g48
sS'catalog'
p3197
g7
sS'solipsism'
p3198
g4
sS'law'
p3199
g7
sS'response'
p3200
g48
sS'light-ray'
p3201
g7
sS'tomato'
p3202
g22
sS'indicium'
p3203
g7
sS'liquid'
p3204
g4
sS'light'
p3205
g398
sS'insistence'
p3206
g7
sS'robot'
p3207
g48
sS'element'
p3208
g4
sS'complexity'
p3209
g4
sS'representation'
p3210
g7
sS'software'
p3211
g7
sS'discussion'
p3212
g18
sS'talk'
p3213
g7
sS'Technically'
p3214
g7
sS'Churchland'
p3215
g4
sS'ungerleider'
p3216
g7
sS'interpretation'
p3217
g7
sS'feedback'
p3218
g7
sS'move'
p3219
g7
sS'camera-eye'
p3220
g7
sS'brain'
p3221
S'26'
p3222
sS'scientist'
p3223
g4
sS'Drescher'
p3224
g48
sS'Hermann'
p3225
g7
sS'existence'
p3226
g398
sS'Helmholtz'
p3227
g7
sS'MIT'
p3228
g7
sS'tendency'
p3229
g7
sS'position'
p3230
g4
sS'after-image'
p3231
g4
sS'feel'
p3232
g10
sS'orange'
p3233
g7
sS'inquiry'
p3234
g7
sS'pixel'
p3235
g4
sS'correspondence'
p3236
g7
sS'Bat'
p3237
g7
sS'evening'
p3238
g48
sS'food'
p3239
g7
sS'relativism'
p3240
g4
sS'practice'
p3241
g7
sS'Michael'
p3242
g4
sS'bat'
p3243
g7
sS'break'
p3244
g7
sS'mention'
p3245
g4
sS'front'
p3246
g7
sS'feature'
p3247
g22
sS'singularity'
p3248
g7
sS'one'
p3249
g18
sS'day'
p3250
g7
sS'people'
p3251
g18
sS'occult'
p3252
g7
sS'inversion'
p3253
g18
sS'bulginess'
p3254
g7
sS'realist'
p3255
g4
sS'World'
p3256
g7
sS'presupposition'
p3257
g7
sS'neuroscientist'
p3258
g7
sS'transmission'
p3259
g7
sS'someone'
p3260
g48
sS'Hobbes'
p3261
g7
sS'truth'
p3262
g48
sS'Gary'
p3263
g4
sS'side'
p3264
g4
sS'realism'
p3265
g4
sS'square'
p3266
g4
sS'map'
p3267
g4
sS'Bertrand'
p3268
g7
sS'series'
p3269
g7
sS'conceivability'
p3270
g10
sS'idea'
p3271
g18
sS'unlock'
p3272
g7
sS'Joseph'
p3273
g7
sS'quantum'
p3274
g4
sS'wavelength'
p3275
g48
sS'operation'
p3276
g4
sS'array'
p3277
g7
sS'thoroughness'
p3278
g7
sS'E.'
p3279
g7
sS'matrix'
p3280
g7
sS'space'
p3281
g7
sS'spectrum'
p3282
g308
sS'research'
p3283
g4
sS'William'
p3284
g18
sS'L.'
p3285
g7
sS'investigation'
p3286
g7
sS'electronics'
p3287
g7
sS'objectivity'
p3288
g7
sS'issue'
p3289
g64
sS'misperception'
p3290
g7
sS'red'
p3291
g64
sS'perception'
p3292
S'21'
p3293
sS'belief'
p3294
g7
sS'University'
p3295
g18
sS'million'
p3296
g7
sS'possibility'
p3297
g10
sS'Hirstein'
p3298
g4
sS'difficulty'
p3299
g7
sS'reason'
p3300
g48
sS'base'
p3301
g7
sS'imaging'
p3302
g7
sS'disposition'
p3303
g4
sS'qualium'
p3304
S'116'
p3305
sS'Paul'
p3306
g4
sS'card'
p3307
g7
sS'raster'
p3308
g4
sS'language'
p3309
g22
sS'argument'
p3310
S'35'
p3311
sS'Vortex'
p3312
g7
sS'turn'
p3313
g7
sS'place'
p3314
g4
sS'threat'
p3315
g7
sS'consequence'
p3316
g7
sS'childhood'
p3317
g7
sS'Homunculus'
p3318
g7
sS'origin'
p3319
g48
sS'intuition'
p3320
g18
sS'seeming'
p3321
g7
sS'researcher'
p3322
g7
sS'coding'
p3323
g7
sS'scene'
p3324
g7
sS'hearing'
p3325
g7
sS'Gilbert'
p3326
g7
sS'quality'
p3327
g18
sS'engineer'
p3328
g4
sS'stimulation'
p3329
g7
sS'story'
p3330
g4
sS'reference'
p3331
g18
sS'introduction'
p3332
g7
sS'Intentional'
p3333
g7
sS'top'
p3334
g7
sS'Levine'
p3335
g4
sS'system'
p3336
g7
sS'construct'
p3337
g7
sS'priority'
p3338
g7
sS'attack'
p3339
g7
sS'assumption'
p3340
g18
sS'statement'
p3341
g7
sS'Press'
p3342
g7
sS're-selection'
p3343
g7
sS'headache'
p3344
g4
sS'Hagelin'
p3345
g7
sS'Chalmers'
p3346
g4
sS'explanation'
p3347
g48
sS'part'
p3348
g10
sS'character'
p3349
g22
sS'kind'
p3350
g18
sg2037
g7
sS'namesake'
p3351
g7
sS'isolation'
p3352
g4
sS'instruction'
p3353
g7
sS'bitterness'
p3354
g7
sS'matter'
p3355
g48
sS'future'
p3356
g7
sS'contrary'
p3357
g4
sS'hallucination'
p3358
g7
sS'outcome'
p3359
g7
sS'Pribram'
p3360
g7
sS'epiphenomenalism'
p3361
g48
sS'motivation'
p3362
g4
sS'Richard'
p3363
g7
sS'hearer'
p3364
g7
sS'mind'
p3365
S'12'
p3366
sS'head'
p3367
g4
sS'sincerity'
p3368
g7
sS'need'
p3369
g7
sS'Moreland'
p3370
g18
sS'self'
p3371
g4
sS'agency'
p3372
g7
sS'mechanism'
p3373
g7
sS'instance'
p3374
g308
sS'emphasis'
p3375
g7
sS'contact'
p3376
g4
sS'take'
p3377
g7
sS'analogy'
p3378
g4
sS'first-person'
p3379
g7
sS'stimulus'
p3380
g7
sS'accuracy'
p3381
g7
sS'play'
p3382
g7
sS'pain'
p3383
g10
sS'trace'
p3384
g7
sS'tye'
p3385
g18
sS'object'
p3386
S'15'
p3387
sS'reach'
p3388
g7
sS'Lowe'
p3389
g18
sS'Transparency'
p3390
g7
sS'pleasure'
p3391
g7
sS'nothing'
p3392
g7
sS'kilohertz'
p3393
g7
sS'observation'
p3394
g7
sS'Lewis'
p3395
g308
sS'professor'
p3396
g7
sS'tooth'
p3397
g7
sS'psychology'
p3398
g4
sS'cortex'
p3399
g4
sS'know-how'
p3400
g4
sS'wine'
p3401
g10
sS'salt'
p3402
g7
sS'notion'
p3403
g48
sS'fact'
p3404
S'11'
p3405
sS'shop'
p3406
g7
sS'impression'
p3407
g7
sS'phenomenon'
p3408
g22
sS'Barry'
p3409
g7
sS'passer-by'
p3410
g7
sS'relation'
p3411
g22
sS'fear'
p3412
g4
sS'debate'
p3413
g48
sS'ground'
p3414
g7
sS'resemblance'
p3415
g7
sS'knowledge'
p3416
S'29'
p3417
sS'state'
p3418
S'15'
p3419
sS'experiment'
p3420
S'15'
p3421
sS'ambiguity'
p3422
g4
sS'partake'
p3423
g7
sS'awareness'
p3424
g7
sS'triangle'
p3425
g48
sS'means'
p3426
g4
sS'raw-feel'
p3427
g7
sS'television'
p3428
g10
sS'listener'
p3429
g7
sS'Nonconceptual'
p3430
g7
sS'reply'
p3431
g4
sS'entity'
p3432
g64
sS'Kripke'
p3433
g7
sS'organ'
p3434
g7
sS'alteration'
p3435
g7
sS'morning'
p3436
g7
sS'J.'
p3437
g4
sS'paper'
p3438
g10
sS'architecture'
p3439
g7
sS'activity'
p3440
g4
sS'implication'
p3441
g7
sS'vision'
p3442
g7
sS'view'
p3443
g64
sS'body'
p3444
g18
sS'Jackson'
p3445
g308
sS'observer'
p3446
g18
sS'creator'
p3447
g7
sS'intelligence'
p3448
g7
sS'point-state'
p3449
g7
sS'Wright'
p3450
g10
sS'computer'
p3451
g48
sS'result'
p3452
g4
sS'John'
p3453
g48
sS'stance'
p3454
g7
sS'colorimetry'
p3455
g7
sS'pattern'
p3456
g18
sS'wow'
p3457
g4
sS'pump'
p3458
g7
sS'7-up'
p3459
g4
sS'identification'
p3460
g4
sS'approach'
p3461
g18
sS'Rodolfo'
p3462
g7
sS'ability'
p3463
g64
sS'nature'
p3464
g22
sS'importance'
p3465
g48
sS'confusion'
p3466
g7
sS'screen'
p3467
S'11'
p3468
sS'attention'
p3469
g4
sS'physicist'
p3470
g4
sS'hypothesis'
p3471
g18
sS'opposition'
p3472
g7
sS'article'
p3473
g48
sS'superstition'
p3474
g7
sS'problem'
p3475
S'14'
p3476
sS'dualism'
p3477
g18
sS'reaction'
p3478
g18
sS'grass'
p3479
g7
sS'joke'
p3480
g7
sS'region'
p3481
g7
sS'uncertainty'
p3482
g7
sg108
g7
sS'logic'
p3483
g7
sS'collection'
p3484
g7
sS'distinction'
p3485
g18
sS'Kant'
p3486
g7
sS'grounds'
p3487
g7
sS'Ramachandran'
p3488
g4
sS'schr\xc3\xb6dinger'
p3489
g7
sS'point'
p3490
g10
sS'color'
p3491
S'21'
p3492
sS'armchair'
p3493
g7
sS'period'
p3494
g7
sS'accusation'
p3495
g7
sS'adaptation'
p3496
g7
sS'learning'
p3497
g7
sS'blending'
p3498
g4
sS'respect'
p3499
g4
sS'Perception'
p3500
g7
sS'Clarence'
p3501
g7
sS'adverb'
p3502
g7
sS'basis'
p3503
g7
sS'qualiaphile'
p3504
g7
sS'acceptance'
p3505
g7
sS'taste'
p3506
g10
sS'reduction'
p3507
g7
sS'proposal'
p3508
g7
sS'warmth'
p3509
g7
sS'print-out'
p3510
g4
sS'dialogue'
p3511
g7
sS'indeterminacy'
p3512
g7
sS'efficacy'
p3513
g7
sS'gas'
p3514
g7
sS'gap'
p3515
g4
sS'representative'
p3516
g7
sS'demand'
p3517
g7
sS'sound'
p3518
g7
sS'predicament'
p3519
g7
sS'conception'
p3520
g7
sS'look'
p3521
g18
sS'apprehension'
p3522
g7
sS'Sellars'
p3523
g4
sS'appearance'
p3524
g4
sS'value'
p3525
g4
sS'match'
p3526
g4
sS'behavior'
p3527
g18
sS'error'
p3528
g7
sS'situation'
p3529
g7
sS'balance'
p3530
g7
sS'p.'
p3531
g18
sS'procedure'
p3532
g7
sS'century'
p3533
g48
sS'Objection'
p3534
g7
sS'von'
p3535
g7
sS'neuron'
p3536
g4
sS'surface'
p3537
g7
sS'Content'
p3538
g7
sS'Wood'
p3539
g7
sS'experience'
p3540
S'36'
p3541
sS'Analogy'
p3542
g7
sS'toothache'
p3543
g7
sS'par'
p3544
g7
sS'participant'
p3545
g7
sS'grant'
p3546
g7
sS'connection'
p3547
g10
sS'V.'
p3548
g7
sS'speaker'
p3549
g7
sS'document'
p3550
g7
sS'sham'
p3551
g7
sS'development'
p3552
g7
sS'material'
p3553
g7
sS'mockery'
p3554
g7
sS'effect'
p3555
g10
sS'hand'
p3556
g18
sS'v4'
p3557
g7
sS'realness'
p3558
g7
sS'necessity'
p3559
g7
sS'dualist'
p3560
g18
sS'workings'
p3561
g7
sS'invariance'
p3562
g7
sS'non-physicality'
p3563
g7
sS'Order'
p3564
g7
sS'identity'
p3565
g4
sS'grown-up'
p3566
g7
sS'task'
p3567
g7
sS'center'
p3568
g7
sS'Mind'
p3569
g7
sS'analysis'
p3570
g4
sS'Perkins'
p3571
g18
sS'thought'
p3572
g398
sS'person'
p3573
S'13'
p3574
sS'edge'
p3575
g7
sS'Schr\xc3\xb6dinger'
p3576
g18
sS'inability'
p3577
g7
sS'organization'
p3578
g7
sS'Karl'
p3579
g7
sS'Russell'
p3580
g7
sS'consciousness'
p3581
S'11'
p3582
sS'sentence'
p3583
g4
sS'shape'
p3584
g4
sS'Daniel'
p3585
g22
sS'aspect'
p3586
g398
sS'touch'
p3587
g7
sS'reality'
p3588
g10
sS'announcement'
p3589
g7
sS'Theory'
p3590
g4
sS'field'
p3591
g308
sS'rose'
p3592
g7
sS'sky'
p3593
g10
sS'Robinson'
p3594
g10
sS'source'
p3595
g7
sS'book'
p3596
g10
sS'relevance'
p3597
g7
sS'input'
p3598
g4
sS'kick'
p3599
g7
sS'chess'
p3600
g7
sS'phenomenology'
p3601
g7
sS'survival'
p3602
g4
sS'term'
p3603
g398
sS'game'
p3604
g4
sS'world'
p3605
S'15'
p3606
sS'desire'
p3607
g7
sS'proponent'
p3608
g4
sS'disinclination'
p3609
g7
sS'B.'
p3610
g7
sS'Durham'
p3611
g7
sS'Learning'
p3612
g7
sS'conclusion'
p3613
g18
sS'Causal'
p3614
g7
sS'right'
p3615
g7
sS'light-source'
p3616
g4
sS'Dancing'
p3617
g7
sS'back'
p3618
g7
sS'sight'
p3619
g4
sS'Ayer'
p3620
g7
sS'physicalist'
p3621
g4
sS'Jonathan'
p3622
g7
sS'Mary'
p3623
S'26'
p3624
sS'Epiphenomenal'
p3625
g7
sS'rastrum'
p3626
g7
sS'lead'
p3627
g7
sS'Frank'
p3628
g4
sS'philosopher'
p3629
S'10'
p3630
sS'pioneer'
p3631
g7
sS'landscape'
p3632
g4
sS'core'
p3633
g4
sS'power'
p3634
g18
sS'seconds'
p3635
g7
sS'David'
p3636
g48
sS'zombie'
p3637
g308
sS'pressure'
p3638
g18
sS'neurosurgeon'
p3639
g4
sS'eye'
p3640
g4
sS'First'
p3641
g7
sS'comparison'
p3642
g7
sS'anything'
p3643
g4
sS'universe'
p3644
g4
sS'Abstract'
p3645
g7
sS'simulation'
p3646
g48
sS'Roy'
p3647
g7
sS'range'
p3648
g4
sS'H.'
p3649
g7
sS'definition'
p3650
S'12'
p3651
sS'fallacy'
p3652
g7
sS'nerve'
p3653
g7
sS'letter'
p3654
g7
sS'presence'
p3655
g4
sS'student'
p3656
g7
sS'communication'
p3657
g18
sS'image'
p3658
g18
sS'son'
p3659
g18
sS'physicalism'
p3660
g48
sS'registration'
p3661
g4
sS'categorization'
p3662
g7
sS'emergentism'
p3663
g7
sS'area'
p3664
g7
sS'support'
p3665
g7
sS'sequence'
p3666
g7
sS'question'
p3667
g22
sS'doubt'
p3668
g4
sS'lot'
p3669
g7
sS'house'
p3670
g4
sS'sense-datum'
p3671
g10
sS'opponent'
p3672
g4
sS'cricket'
p3673
g7
sS'form'
p3674
g18
sS'retina'
p3675
g4
sS'Nagel'
p3676
g18
sS'Freud'
p3677
g4
sS'volume'
p3678
g4
sS'failure'
p3679
g18
sS'link'
p3680
g7
sS'gain'
p3681
g48
sS'line'
p3682
g7
sS'physicality'
p3683
g7
sS'characteristic'
p3684
g7
sS'crystal'
p3685
g4
sS'neurology'
p3686
g7
sS'distribution'
p3687
g18
sS'piece'
p3688
g7
sS'khz'
p3689
g7
sS'advertisement'
p3690
g4
sS'escape'
p3691
g7
sS'evidence'
p3692
g48
sS'neurosurgery'
p3693
g18
sS'reliability'
p3694
g7
sS'anesthesia'
p3695
g7
sS'film'
p3696
g7
sS'regime'
p3697
g4
sS'completeness'
p3698
g7
sS'nm'
p3699
g18
sS'objection'
p3700
g18
sS'detail'
p3701
g4
sS'event'
p3702
g48
sS'introspection'
p3703
g7
sS'application'
p3704
g7
sS'prism'
p3705
g7
sS'other'
p3706
g4
sS'role'
p3707
g7
sS'smell'
p3708
g7
sS'principle'
p3709
g4
sS'picture'
p3710
g10
sS'epiphenomenal'
p3711
g7
sS'Stanford'
p3712
g7
sS'symbol'
p3713
g7
sS'football'
p3714
g4
sS'chance'
p3715
g7
sS'variable'
p3716
g7
sS'veil'
p3717
g18
sS'structure'
p3718
g4
sS'exposure'
p3719
g4
sS'billion'
p3720
g7
sg2414
g7
sS'happening'
p3721
g7
sS'Color'
p3722
g7
sS'organism'
p3723
g10
sS'rule'
p3724
g7
sS'impossibility'
p3725
g7
sS'time'
p3726
g4
sS'psychiatry'
p3727
g7
ssS'quietism_(christian_philosophy)'
p3728
(dp3729
S'affair'
p3730
g7
sS'Saints'
p3731
g7
sS'writings'
p3732
g4
sS'founder'
p3733
g7
sS'similarity'
p3734
g7
sS'counsellor'
p3735
g7
sS'rest'
p3736
g7
sS'cross'
p3737
g7
sS'tent'
p3738
g7
sS'proposition'
p3739
g7
sS'world'
p3740
g7
sS'Meister'
p3741
g7
sS'earth'
p3742
g7
sS'Canfield'
p3743
g7
sS'tendency'
p3744
g4
sS'Catholics'
p3745
g7
sS'death'
p3746
g7
sS'group'
p3747
g7
sS'quietism'
p3748
g48
sS'thinking'
p3749
g7
sS'Beghards'
p3750
g7
sS'absorption'
p3751
g7
sS'writer'
p3752
g7
sS'bosom'
p3753
g7
sS'Free'
p3754
g7
sS'spirit'
p3755
g7
sS'spirituality'
p3756
g7
sS'spread'
p3757
g7
sS'suspicion'
p3758
g18
sS'Quietism'
p3759
S'12'
p3760
sS'teaching'
p3761
g48
sS'Epicurus'
p3762
g7
sS'1670'
p3763
g4
sS'Spain'
p3764
g4
sS'dispute'
p3765
g7
sS'Cathars'
p3766
g4
sS'Pope'
p3767
g18
sS'government'
p3768
g7
sS'Louis'
p3769
g7
sS'nada'
p3770
g7
sS'practice'
p3771
g7
sS'proponent'
p3772
g7
sS'Avila'
p3773
g4
sS'John'
p3774
g48
sS'perfection'
p3775
g48
sS'XIV'
p3776
g7
sS'press'
p3777
g7
sS'word'
p3778
g7
sS'bread'
p3779
g7
sS'Beguines'
p3780
g7
sS'name'
p3781
g7
sS'approach'
p3782
g7
sS'Fraticelli'
p3783
g7
sS'Council'
p3784
g7
sS'W.'
p3785
g7
sS'friar'
p3786
g7
sS'movement'
p3787
g7
sS'George'
p3788
g7
sS'set'
p3789
g18
sS'Cambrai'
p3790
g7
sS'accuser'
p3791
g7
sS'reference'
p3792
g7
sS'Archbishop'
p3793
g7
sS'mind'
p3794
g4
sS'creation'
p3795
g7
sS'Fox'
p3796
g7
sS'idea'
p3797
g7
sS'authority'
p3798
g4
sS'Christianity'
p3799
g7
sS'society'
p3800
g7
sS'self-annihilation'
p3801
g7
sS'defense'
p3802
g7
sS'Easy'
p3803
g7
sS'Malaval'
p3804
g4
sS'Vienne'
p3805
g7
sS'arm'
p3806
g7
sS'concern'
p3807
g10
sS'hymn'
p3808
g7
sS'living'
p3809
g7
sS'E.'
p3810
g7
sS'Holy'
p3811
g7
sS'Orthodox'
p3812
g7
sS'Pastor'
p3813
g4
sS'philosopher'
p3814
g7
sS'William'
p3815
g7
sS'Madame'
p3816
g48
sS'Pyrrhonian'
p3817
g7
sS'Bull'
p3818
g7
sS'Mme'
p3819
g7
sS'rite'
p3820
g7
sS'Francis'
p3821
g7
sS'Bastille'
p3822
g7
sS'inaction'
p3823
g7
sS'body'
p3824
g4
sS'Sant'
p3825
g7
sS'Bible'
p3826
g7
sS'belief'
p3827
g22
sS'degree'
p3828
g7
sS'state'
p3829
g22
sS'attention'
p3830
g7
sS'component'
p3831
g7
sS'possibility'
p3832
g7
sS'Miguel'
p3833
g4
sS'systematisation'
p3834
g7
sS'pursuit'
p3835
g7
sS'extent'
p3836
g7
sS'stillness'
p3837
g7
sS'resemblance'
p3838
g7
sS'faith'
p3839
g7
sS'contemplation'
p3840
g18
sS'XXII'
p3841
g7
sS'anything'
p3842
g7
sS'basis'
p3843
g4
sS'sacrament'
p3844
g7
sS'pre-quietism'
p3845
g7
sS'pray'
p3846
g7
sS'Catholic'
p3847
g48
sS'serenity'
p3848
g7
sS'context'
p3849
g7
sS'action'
p3850
g4
sS'Divine'
p3851
g7
sS'expression'
p3852
g4
sS'silence'
p3853
g7
sS'key'
p3854
g7
sS'Molinos'
p3855
g398
sS'xi'
p3856
g4
sS'love'
p3857
g7
sS'Christ'
p3858
g7
sS'shorthand'
p3859
g7
sS'Guyon'
p3860
g48
sS'Capuchin'
p3861
g7
sS'tract'
p3862
g4
sS'period'
p3863
g7
sS'assertion'
p3864
g4
sS'accusation'
p3865
g7
sS'follower'
p3866
g7
sS'Fran\xc3\xa7ois'
p3867
g18
sS'doctrine'
p3868
g7
sS'Method'
p3869
g7
sS'godhead'
p3870
g7
sS'Frith'
p3871
g7
sS'opponent'
p3872
g4
sS'convent'
p3873
g7
sS'Eastern'
p3874
g7
sS'union'
p3875
g4
sS'xii'
p3876
g7
sS'term'
p3877
g4
sS'system'
p3878
g7
sS'commission'
p3879
g7
sS'Aurelius'
p3880
g7
sS'author'
p3881
g4
sS'interest'
p3882
g4
sS'Belgium'
p3883
g7
sS'Eckhart'
p3884
g4
sS'war'
p3885
g7
sS'Catalonia'
p3886
g7
sS'inquisition'
p3887
g7
sS'life'
p3888
g48
sS'way'
p3889
g4
sS'form'
p3890
g18
sS'Church'
p3891
g10
sS'altar'
p3892
g7
sS'maxim'
p3893
g7
sS'quaker'
p3894
g7
sS'Blois'
p3895
g7
sS'part'
p3896
g4
sS'representative'
p3897
g4
sS'bull'
p3898
g7
sS'Bossuet'
p3899
g7
sS'France'
p3900
g10
sS'circle'
p3901
g7
sS'evangelical'
p3902
g7
sS'kind'
p3903
g7
sS'Castel'
p3904
g7
sS'circulation'
p3905
g7
sS'quietist'
p3906
g48
sS'meditation'
p3907
g18
sS'work'
p3908
g48
sS'Teresa'
p3909
g4
sS'soul'
p3910
g48
sS'value'
p3911
g7
sS'aim'
p3912
g7
sS'growth'
p3913
g7
sS'era'
p3914
g7
sS'error'
p3915
g48
sS'passivity'
p3916
g7
sS'history'
p3917
g4
sS'Angelo'
p3918
g7
sS'supreme'
p3919
g7
sS'Italy'
p3920
g4
sS'orientation'
p3921
g7
sS'century'
p3922
S'11'
p3923
sS'God'
p3924
g308
sS'influence'
p3925
g7
sS'Cross'
p3926
g7
sS'textbook'
p3927
g7
sS'sale'
p3928
g7
sS'precept'
p3929
g7
sS'need'
p3930
g4
sS'manner'
p3931
g7
sS'prayer'
p3932
g308
sS'exile'
p3933
g7
sS'controversy'
p3934
g10
sS'alumbrado'
p3935
g7
sS'brethren'
p3936
g7
sS'Benet'
p3937
g7
sS'autonomy'
p3938
g7
sS'denial'
p3939
g7
sS'court'
p3940
g4
sS'reformer'
p3941
g7
sS'Quietist'
p3942
g64
sS'feature'
p3943
g7
sS'instance'
p3944
g7
sS'emphasis'
p3945
g7
sS'other'
p3946
g7
sS'Albigenses'
p3947
g7
sS'commentary'
p3948
g7
sS'Gnosticism'
p3949
g7
sS'Friends'
p3950
g7
sS'Spirit'
p3951
g7
sS'conclusion'
p3952
g7
sS'Marcus'
p3953
g7
sS'condemnation'
p3954
g18
sS'F\xc3\xa9nelon'
p3955
g48
sS'philosophy'
p3956
g4
sS'ataraxium'
p3957
g7
sS'Pollard'
p3958
g7
sS'Roman'
p3959
g4
sS'position'
p3960
g7
sS'account'
p3961
g4
sS'Christian'
p3962
g18
sS'transubstantiation'
p3963
g7
sS'man'
p3964
g48
sS'Hesychasm'
p3965
g7
sS'emperor'
p3966
g7
sS'popularity'
p3967
g7
sS'heresy'
p3968
g10
sS'Quaker'
p3969
g7
sS'theology'
p3970
g18
sS'thought'
p3971
g7
sS'1680'
p3972
g4
sS'proceedings'
p3973
g7
sS'contact'
p3974
g7
sS'encyclopedia'
p3975
g7
sS'Maintenon'
p3976
g7
sS'Coelestis'
p3977
g4
sS'time'
p3978
g7
sS'pleasure'
p3979
g7
sS'Turner'
p3980
g7
sS'fact'
p3981
g7
sS'Godhead'
p3982
g4
ssS'quantum_hall_effect'
p3983
(dp3984
S'concept'
p3985
g7
sS'phenomenon'
p3986
g7
sS'discoverer'
p3987
g7
sS'similarity'
p3988
g7
sS'resistance'
p3989
g18
sS'gauge'
p3990
g4
sS'voltage'
p3991
g7
sS'h/e2'
p3992
g7
sS'existence'
p3993
g4
sS'analogue'
p3994
g7
sS'tendency'
p3995
g7
sS'current'
p3996
g18
sS'mosfet'
p3997
g7
sS'\xcf\x89'
p3998
g7
sS'density'
p3999
g7
sS'fix'
p4000
g7
sS'eb/m'
p4001
g7
sS'charge'
p4002
g4
sS'experiment'
p4003
g4
sS'factor'
p4004
g4
sS'Prize'
p4005
g7
sS'material'
p4006
g7
sS'Michael'
p4007
g7
sS'term'
p4008
g7
sS'landau'
p4009
g308
sS'electron'
p4010
g64
sS'Fermi'
p4011
g7
sS'\xce\xbd'
p4012
g48
sS'integer'
p4013
S'17'
p4014
sS'Gerhard'
p4015
g7
sS'hall'
p4016
S'21'
p4017
sS'Hofstadter'
p4018
g7
sS'inversion'
p4019
g7
sS'particle'
p4020
g7
sS'level'
p4021
g398
sg2130
g7
sS'Hall'
p4022
S'10'
p4023
sS'flux'
p4024
g4
sS'b-field'
p4025
g7
sS'Azbel-Harper-Hofstadter'
p4026
g7
sS'degeneracy'
p4027
g4
sS'Ando'
p4028
g7
sS'en'
p4029
g7
sS'Laughlin'
p4030
g7
sS'oscillation'
p4031
g4
sS'energy'
p4032
g4
sS'approximation'
p4033
g7
sS'conductance'
p4034
g10
sS'frequency'
p4035
g7
sS'measurement'
p4036
g7
sS'cyclotron'
p4037
g4
sS'laboratory'
p4038
g7
sS'Grenoble'
p4039
g7
sS'conductivity'
p4040
g7
sS'scale'
p4041
g7
sS'impurity'
p4042
g7
sS'axis'
p4043
g4
sS'Landau'
p4044
g7
sS'semiconductor'
p4045
g7
sS'state'
p4046
g48
sS'version'
p4047
g7
sS'approach'
p4048
g7
sS'discovery'
p4049
g7
sS'importance'
p4050
g7
sS'flow'
p4051
g7
sS'standard'
p4052
g7
sS'formula_6'
p4053
g7
sS'formula_4'
p4054
g7
sS'formula_5'
p4055
g7
sS'formula_2'
p4056
g7
sS'Berry'
p4057
g7
sS'definition'
p4058
g7
sS'interaction'
p4059
g4
sg2709
g4
sS'Haas'
p4060
g4
sg1844
g7
sS'basis'
p4061
g7
sS'gallium'
p4062
g7
sS'example'
p4063
g4
sS'Matsumoto'
p4064
g7
sS'context'
p4065
g7
sS'self-similarity'
p4066
g7
sS'formula_3'
p4067
g7
sS'origin'
p4068
g7
sS'color'
p4069
g18
sS'Robert'
p4070
g7
sS'\xcf\x89c'
p4071
g7
sS'number'
p4072
g18
sS'Nobel'
p4073
g7
sS'Uemura'
p4074
g7
sS'zno-mgxzn1-xo'
p4075
g7
sS'Pepper'
p4076
g7
sS'van'
p4077
g7
sS'temperature'
p4078
g18
sS'area'
p4079
g7
sS'addition'
p4080
g7
sS'system'
p4081
g18
sS'Klitzing'
p4082
g48
sS'Shubnikov'
p4083
g7
sS'fraction'
p4084
g7
sS'von'
p4085
g48
sS'Alphen'
p4086
g7
sS'field'
p4087
g398
sS'Klaus'
p4088
g4
sS'interest'
p4089
g7
sS'composite'
p4090
g7
sS'worker'
p4091
g7
sS'part'
p4092
g7
sS'link'
p4093
g7
sS'manifestation'
p4094
g7
sS'spin'
p4095
g18
sg2037
g7
sS'room'
p4096
g7
sS'value'
p4097
g48
sS'oxide'
p4098
g7
sS'r'
p4099
g4
sS'charge-flux'
p4100
g7
sS'Quantum'
p4101
g7
sS'property'
p4102
g7
sS'Planck'
p4103
g7
sS'history'
p4104
g7
sS'layer'
p4105
g7
sS'transition'
p4106
g7
sS'e2/h'
p4107
g7
sS'figure'
p4108
g4
sS'calculation'
p4109
g7
sS'electrodynamics'
p4110
g7
sS'graphene'
p4111
g7
sS'surface'
p4112
g7
sS'sample'
p4113
g4
sS'quantum'
p4114
S'29'
p4115
sS'quantization'
p4116
g22
sS'fermion'
p4117
g4
sS'regime'
p4118
g7
sS'orbital'
p4119
g18
sS'arsenide'
p4120
g7
sS'calibration'
p4121
g7
sS'mechanism'
p4122
g7
sS'application'
p4123
g7
sS'potential'
p4124
g7
sS'finding'
p4125
g7
sS'mathematics'
p4126
g4
sS'Dorda'
p4127
g7
sS'qah'
p4128
g7
sS'channel'
p4129
g7
sS'butterfly'
p4130
g7
sS'k-90'
p4131
g7
sS'multiple'
p4132
g7
sS'Chern'
p4133
g7
sS'effect'
p4134
S'26'
p4135
sS'diagram'
p4136
g4
sS'rise'
p4137
g7
sS'strength'
p4138
g7
sS'phase'
p4139
g18
sS'invariance'
p4140
g4
sS'heterostructure'
p4141
g7
sS'structure'
p4142
g4
sS'a'
p4143
g7
sS'metal'
p4144
g7
sS'orbit'
p4145
g4
sS'edge'
p4146
g7
sS'principle'
p4147
g7
sS'determination'
p4148
g7
sS'model'
p4149
g4
sS'quantity'
p4150
g7
sS'physics'
p4151
g7
sS'dimension'
p4152
g7
sS'prefactor'
p4153
g7
ssS'quark'
p4154
(dp4155
S'concept'
p4156
g7
sS'Nakagawa'
p4157
g7
sS'resistance'
p4158
g7
sS'alt'
p4159
g7
sS'spin-statistics'
p4160
g7
sS'reasoning'
p4161
g7
sS'content'
p4162
g7
sS'Standard'
p4163
g48
sS'violation'
p4164
g7
sS'charge'
p4165
S'39'
p4166
sS'd\xc3\xb8'
p4167
g7
sS'rise'
p4168
g7
sS'maskawa'
p4169
g7
sS'\xce\xbe'
p4170
g4
sS'Richter'
p4171
g7
sS'condition'
p4172
g18
sS'list'
p4173
g4
sS'vector'
p4174
g18
sS'Maiani'
p4175
g7
sS'team'
p4176
g18
sS'gauge'
p4177
g48
sS'speculation'
p4178
g7
sS'optics'
p4179
g7
sS'George'
p4180
g4
sS'application'
p4181
g7
sS'force'
p4182
g10
sS'sign'
p4183
g48
sS'past'
p4184
g7
sS'pmn'
p4185
g4
sS'sum'
p4186
g7
sS'QCDphasediagram.svg'
p4187
g7
sS'contrast'
p4188
g7
sS'degree'
p4189
g7
sS'Higgs'
p4190
g4
sS'v'
p4191
g7
sS'component'
p4192
g22
sS'Feynman'
p4193
g7
sS'change'
p4194
g7
sS'extreme'
p4195
g7
sS'search'
p4196
g7
sS'study'
p4197
g7
sS'Haim'
p4198
g7
sS'suggestion'
p4199
g7
sS'Makoto'
p4200
g7
sS'classification'
p4201
g4
sS'antineutrino'
p4202
g4
sS'gluon'
p4203
S'26'
p4204
sS'neutrino'
p4205
g7
sS'\xe2\x88\x92'
p4206
g308
sS'unit'
p4207
g7
sS'experimentation'
p4208
g7
sS'use'
p4209
g4
sS'Kelvin'
p4210
g7
sS'qcd'
p4211
g7
sS'type'
p4212
g48
sS'emission'
p4213
g4
sS'validity'
p4214
g7
sS'proton'
p4215
g64
sS'antibaryon'
p4216
g4
sS'word'
p4217
g7
sS'ace'
p4218
g7
sS'SU'
p4219
g308
sS'\xe2\x86\x93'
p4220
g7
sS'\xe2\x86\x91'
p4221
g7
sS'freedom'
p4222
g18
sS'example'
p4223
g10
sS'history'
p4224
g7
sS'process'
p4225
g308
sS'collision'
p4226
g18
sS'Cabibbo'
p4227
g7
sS'axis'
p4228
g22
sS'motion'
p4229
g7
sS'Zweig'
p4230
g22
sS'lepton'
p4231
g48
sS'pair'
p4232
g398
sS'topness'
p4233
g4
sS'description'
p4234
g7
sS'beauty'
p4235
g4
sS'Linear'
p4236
g4
sS'diagram'
p4237
g18
sS'spelling'
p4238
g7
sS'law'
p4239
g7
sS'attempt'
p4240
g7
sS'liquid'
p4241
g4
sS'CERN'
p4242
g7
sS'electron'
p4243
g48
sS'File'
p4244
g7
sS'representation'
p4245
g7
sS'Quarks'
p4246
g48
sS'entity'
p4247
g7
sS'stability'
p4248
g7
sS'course'
p4249
g7
sS'paper'
p4250
g4
sS'existence'
p4251
g308
sS'tendency'
p4252
g4
sS'group'
p4253
g7
sS'thumb'
p4254
g7
sS'Yuval'
p4255
g7
sS'decay'
p4256
g64
sS'relativity'
p4257
g7
sS'boson'
p4258
g308
sS'attraction'
p4259
g4
sS'Maskawa'
p4260
g7
sS'production'
p4261
g7
sS'contention'
p4262
g7
sS'combination'
p4263
g48
sS'band'
p4264
g7
sS'Gell-Mann'
p4265
g64
sS'inception'
p4266
g7
sS'Brookhaven'
p4267
g7
sS'rotation'
p4268
g4
sS'term'
p4269
g22
sS'name'
p4270
g308
sS'neutrality'
p4271
g7
sS'magnitude'
p4272
g4
sS'arrow'
p4273
g4
sS'|'
p4274
g18
sS'accelerator'
p4275
g48
sS'generation'
p4276
g22
sS'energy'
p4277
g308
sS'Harari'
p4278
g4
sS'antiparticle'
p4279
g7
sS'abstraction'
p4280
g7
sS'isospin'
p4281
g18
sS'Glashow'
p4282
g18
sS'measurement'
p4283
g4
sS'quantum'
p4284
S'13'
p4285
sS'matrix'
p4286
g308
sS'space'
p4287
g10
sS'Samuel'
p4288
g7
sS'factory'
p4289
g7
sS'research'
p4290
g4
sS'increase'
p4291
g4
sS'etymology'
p4292
g7
sS'theory'
p4293
g10
sS'circumstance'
p4294
g7
sS'quark'
p4295
S'174'
p4296
sS'reason'
p4297
g48
sS'formation'
p4298
g18
sg2702
g7
sS'estimate'
p4299
g7
sS'remainder'
p4300
g7
sg2505
g4
sS'interaction'
p4301
S'24'
p4302
sg2709
g7
sS'National'
p4303
g7
sS'tetraquark'
p4304
g7
sS'counterpart'
p4305
g7
sS'length'
p4306
g4
sS'w'
p4307
g7
sS'origin'
p4308
g7
sS'Cooper'
p4309
g4
sS'symmetry'
p4310
g308
sS'number'
p4311
S'17'
p4312
sS'antiquark'
p4313
S'19'
p4314
sS'pentaquark'
p4315
g7
sS'quality'
p4316
g7
sS'Model'
p4317
g48
sS'perturbation'
p4318
g7
sS'temperature'
p4319
g398
sS'unitarity'
p4320
g7
sS'top'
p4321
g4
sS'system'
p4322
g48
sS'construct'
p4323
g7
sS'convention'
p4324
g7
sS'scheme'
p4325
g4
sS'way'
p4326
g18
sS'baryon'
p4327
S'10'
p4328
sS'explanation'
p4329
g7
sS'part'
p4330
g4
sS'constituent'
p4331
g10
sS'distance'
p4332
g18
sS'kind'
p4333
g7
sg2037
g308
sS'Accelerator'
p4334
g4
sS'isolation'
p4335
g4
sS'annihilation'
p4336
g7
sS'matter'
p4337
g398
sg4099
g7
sS'Sea'
p4338
g4
sS'Relativistic'
p4339
g7
sS'Burton'
p4340
g7
sS'result'
p4341
g4
sS'sea'
p4342
g22
sS'Richard'
p4343
g7
sS'Particles'
p4344
g7
sS'ray'
p4345
g48
sS'Sakata'
p4346
g7
sS'gravity'
p4347
g7
sS'mechanism'
p4348
g18
sS'zoo'
p4349
g7
sS'Bang'
p4350
g4
sS'interior'
p4351
g7
sS'Iliopoulos'
p4352
g7
sS'multiple'
p4353
g7
sS'object'
p4354
g48
sS'beta'
p4355
g48
sS'charm'
p4356
S'14'
p4357
sS'entry'
p4358
g7
sS'phase'
p4359
g22
sS'coin'
p4360
g4
sS'observation'
p4361
g4
sS'ckm'
p4362
g18
sS'principle'
p4363
g7
sS'Joyce'
p4364
g7
sS'physics'
p4365
g398
sS'notion'
p4366
g7
sS'cdf'
p4367
g7
sS'Antiparticles'
p4368
g7
sS'phenomenon'
p4369
g4
sS'gold'
p4370
g4
sS'Finnegans'
p4371
g7
sS'chromodynamic'
p4372
g10
sS'relation'
p4373
g7
sS'threshold'
p4374
g7
sS'indicator'
p4375
g7
sS'Big'
p4376
g4
sS'experiment'
p4377
g22
sS'notation'
p4378
g7
sS'means'
p4379
g7
sS'fluid'
p4380
g7
sS'Fermilab'
p4381
g18
sS'bar'
p4382
g4
sg2130
g7
sS'subtype'
p4383
g7
sS'multitude'
p4384
g7
sS'qcbe'
p4385
g4
sg487
g7
sS'hadronization'
p4386
g7
sS'requirement'
p4387
g7
sS'Collider'
p4388
g7
sS'detection'
p4389
g7
sS'Leon'
p4390
g7
sS'Pauli'
p4391
g7
sS'John'
p4392
g7
sS'subject'
p4393
g4
sS'gravitation'
p4394
g48
sS'state'
p4395
g22
sS'discovery'
p4396
g7
sS'triplet'
p4397
g7
sS'Lederman'
p4398
g7
sS'nature'
p4399
g4
sS'physicist'
p4400
g18
sS'exclusion'
p4401
g7
sS'reaction'
p4402
g7
sg99
g398
sS'reverse'
p4403
g7
sS'uncertainty'
p4404
g4
sg108
g18
sS'Laboratory'
p4405
g7
sS'point'
p4406
g7
sS'color'
p4407
S'38'
p4408
sS'overview'
p4409
g7
sS'period'
p4410
g7
sS'community'
p4411
g4
sS'table'
p4412
g18
sS'cp'
p4413
g7
sS'Electric'
p4414
g7
sS'addition'
p4415
g7
sS"Ne'eman"
p4416
g7
sS'Toshihide'
p4417
g7
sS'Properties'
p4418
g7
sS'direction'
p4419
g18
sS'Center'
p4420
g4
sS'kaon'
p4421
g7
sS'confinement'
p4422
g18
sS'anticolor'
p4423
g18
sS'spin'
p4424
g64
sS'case'
p4425
g7
sS'exception'
p4426
g7
sS'prominence'
p4427
g7
sS'value'
p4428
g22
sS'property'
p4429
S'11'
p4430
sS'Planck'
p4431
g18
sS'~'
p4432
g7
sS'orientation'
p4433
g7
sS'QCD'
p4434
g7
sS'binding'
p4435
g4
sS'mev/c2'
p4436
g4
sS'ij'
p4437
g7
sS'partner'
p4438
g4
sS'fermion'
p4439
g48
sS'epoch'
p4440
g4
sS'complex'
p4441
g7
sS'party'
p4442
g7
sS'neutron'
p4443
g64
sS'Hadrons'
p4444
g7
sS'electromagnetism'
p4445
g4
sS'framework'
p4446
g4
sS'\xc4\xa7'
p4447
g18
sS'y'
p4448
g7
sS'Table'
p4449
g7
sS'model'
p4450
S'11'
p4451
sS'Kobayashi'
p4452
g4
sS'Sheldon'
p4453
g7
sS'rest'
p4454
g7
sS'Physicist'
p4455
g7
sS'Antiquarks'
p4456
g7
sS'flavor'
p4457
S'26'
p4458
sS'formulum'
p4459
g7
sS'scattering'
p4460
g18
sS'family'
p4461
g7
sS'integer'
p4462
g48
sS'density'
p4463
g48
sS'absorption'
p4464
g7
sS'plasma'
p4465
g10
sS'transformation'
p4466
g308
sS'momentum'
p4467
g4
sS'first-generation'
p4468
g7
sS'James'
p4469
g4
sS'Fermi'
p4470
g7
sS'preference'
p4471
g7
sS'world'
p4472
g7
sS'particle'
p4473
S'37'
p4474
sS'flux'
p4475
g7
sS't'
p4476
g18
sS'valence'
p4477
g308
sS'terminology'
p4478
g7
sS'deal'
p4479
g7
sS'Ting'
p4480
g7
sS'Jaguar'
p4481
g7
sS'scale'
p4482
g4
sS'Lee'
p4483
g7
sS'bottomness'
p4484
g4
sS'bottom'
p4485
g10
sS'pet'
p4486
g7
sS'superconductivity'
p4487
g7
sS'antimatter'
p4488
g7
sS'Ion'
p4489
g7
sS'truth'
p4490
g4
sS'seconds'
p4491
g7
sS'hadron'
p4492
S'23'
p4493
sS'Revolution'
p4494
g7
sS'extension'
p4495
g7
sS'universe'
p4496
g18
sS'side'
p4497
g7
sS'carrier'
p4498
g7
sS'repulsion'
p4499
g7
sS'</ref>'
p4500
g48
sS'meson'
p4501
g64
sS'block'
p4502
g7
sS'strangeness'
p4503
g4
sS'rendering'
p4504
g7
sS'parton'
p4505
g4
sS'Bjorken'
p4506
g4
sS'fraction'
p4507
g7
sS'November'
p4508
g4
sS'form'
p4509
g7
sS'gev/c2'
p4510
g7
sS'link'
p4511
g7
sS'atom'
p4512
g4
sS'Luciano'
p4513
g7
sS'SLAC'
p4514
g48
sS'Pontecorvo'
p4515
g7
sS'Heavy'
p4516
g7
sg2980
g18
sS'Murray'
p4517
g4
sS'year'
p4518
g18
sS'evidence'
p4519
g48
sS'Physicists'
p4520
g7
sS'formulation'
p4521
g4
sS'tomography'
p4522
g7
sS'lifetime'
p4523
g4
sS'detail'
p4524
g4
sS'field'
p4525
g10
sS'book'
p4526
g4
sS'proposal'
p4527
g4
sS'picture'
p4528
g7
sS'star'
p4529
g7
sS'Stanford'
p4530
g4
sS'symbol'
p4531
g18
sS'nucleus'
p4532
g18
sS'Mass.'
p4533
g7
sS'building'
p4534
g7
sS'condensation'
p4535
g7
sS'pion'
p4536
g7
sS'vice'
p4537
g4
sS'Color'
p4538
g7
sS'Maki'
p4539
g7
sS'mass'
p4540
S'26'
p4541
sS'time'
p4542
g22
ssS'quadrupole'
p4543
(dp4544
S'nucleon'
p4545
g7
sS'radiation'
p4546
g308
sS'delta'
p4547
g7
sS'Moon'
p4548
g7
sS'course'
p4549
g7
sS'Kronecker'
p4550
g7
sS'corner'
p4551
g4
sS'hole'
p4552
g7
sS'formula_10'
p4553
g7
sS'formula_11'
p4554
g7
sS'formula_13'
p4555
g7
sS'formula_14'
p4556
g7
sS'formula_16'
p4557
g7
sS'formula_17'
p4558
g7
sS'formula_18'
p4559
g7
sS'relativity'
p4560
g4
sS'source'
p4561
g4
sS'charge'
p4562
S'16'
p4563
sS'location'
p4564
g7
sS'factor'
p4565
g7
sS'derivative'
p4566
g7
sS'momentum'
p4567
g7
sS'case'
p4568
g18
sS'cube'
p4569
g7
sS'wave'
p4570
g7
sS'beam'
p4571
g4
sS'R.'
p4572
g7
sS'term'
p4573
g7
sS'bar'
p4574
g7
sS'particle'
p4575
g4
sS'magnet'
p4576
g18
sS'convenience'
p4577
g7
sS'vector'
p4578
g48
sS'2l'
p4579
g7
sS'tubing'
p4580
g7
sS'permittivity'
p4581
g7
sS'right'
p4582
g4
sS'force'
p4583
g7
sS'accelerator'
p4584
g7
sS'sequence'
p4585
g7
sS'sign'
p4586
g4
sS'approximation'
p4587
g7
sS'design'
p4588
g7
sS'monopole'
p4589
g48
sS'transport'
p4590
g7
sS'nonzero'
p4591
g48
sS'index'
p4592
g7
sS'matrix'
p4593
g4
sS'space'
p4594
g7
sS'dipole'
p4595
S'13'
p4596
sS'intersect'
p4597
g7
sS'method'
p4598
g7
sS'contrast'
p4599
g7
sS'parent'
p4600
g7
sS'multipole'
p4601
g308
sS'component'
p4602
g10
sS'expansion'
p4603
g7
sS'formula_6'
p4604
g7
sS'formula_7'
p4605
g7
sS'formula_4'
p4606
g7
sS'formula_5'
p4607
g7
sS'formula_2'
p4608
g7
sS'formula_3'
p4609
g7
sS'formula_1'
p4610
g7
sS'mass-energy'
p4611
g7
sS'configuration'
p4612
g18
sS'formula_8'
p4613
g7
sS'formula_9'
p4614
g7
sS'definition'
p4615
g4
sS'Taylor'
p4616
g7
sS'Energy'
p4617
g7
sS'density'
p4618
g48
sS'length'
p4619
g7
sS'place'
p4620
g7
sS'zero-trace'
p4621
g7
sS'contribution'
p4622
g48
sS'south'
p4623
g7
sS'origin'
p4624
g398
sS'symmetry'
p4625
g7
sS'point'
p4626
S'12'
p4627
sS'period'
p4628
g7
sS'pole'
p4629
g22
sS'square'
p4630
g4
sS'quadrupole'
p4631
S'33'
p4632
sS'pulsar'
p4633
g4
sS'x-vector'
p4634
g7
sS'unit'
p4635
g10
sS'Electric'
p4636
g7
sS'lowest-order'
p4637
g7
sS'system'
p4638
S'10'
p4639
sS'quadrupolar'
p4640
g7
sg2505
g18
sS'interest'
p4641
g7
sS'octupolar'
p4642
g7
sS'quadrapole'
p4643
g7
sS'north'
p4644
g4
sS'way'
p4645
g7
sS'form'
p4646
g7
sS'part'
p4647
g7
sS'atom'
p4648
g7
sS'line'
p4649
g7
sS'spin'
p4650
g7
sS'steel'
p4651
g4
sS'distance'
p4652
g4
sS'type'
p4653
g7
sS'value'
p4654
g7
sg543
g7
sg4099
g4
sS'limit'
p4655
g7
sS'Hulse'
p4656
g7
sS'property'
p4657
g7
sS'example'
p4658
g22
sS'direction'
p4659
g4
sS'generalization'
p4660
g4
sS'orbit'
p4661
g4
sS'tip'
p4662
g7
sS'arrangement'
p4663
g48
sS'field'
p4664
g64
sS'potential'
p4665
g18
sS'dipolar'
p4666
g7
sS'neutron'
p4667
g7
sS'satellite'
p4668
g7
sS'star'
p4669
g7
sS'octupole'
p4670
g18
sS'effect'
p4671
g7
sS'diagram'
p4672
g7
sS'moment'
p4673
S'26'
p4674
sS'Earth'
p4675
g18
sS'pair'
p4676
g7
sS'coil'
p4677
g7
sS'choice'
p4678
g4
sS'structure'
p4679
g7
sS'tensor'
p4680
g48
sS'center'
p4681
g48
sS'electromagnet'
p4682
g7
sg449
g7
sS'formula_20'
p4683
g7
sS'formula_22'
p4684
g7
sS'complexity'
p4685
g7
sS'edge'
p4686
g7
sS'mass'
p4687
S'19'
p4688
sS'time'
p4689
g18
sS'position'
p4690
g4
sS'order'
p4691
g48
sS'quantity'
p4692
g7
ssS'quinine'
p4693
(dp4694
S'Canada'
p4695
g4
sS'lack'
p4696
g7
sS'therapeutics'
p4697
g7
sS'1940'
p4698
g4
sS'sulfate'
p4699
g4
sS'rhythm'
p4700
g7
sS'ingredient'
p4701
g308
sS'woman'
p4702
g7
sS'risk'
p4703
g4
sS'chinotto'
p4704
g4
sS'g6pd'
p4705
g4
sS'choice'
p4706
g4
sS'antimalarial'
p4707
g7
sS'Henry'
p4708
g7
sS'minute'
p4709
g7
sS'level'
p4710
g7
sS'shock'
p4711
g7
sS'list'
p4712
g4
sS'gun'
p4713
g7
sS'cinchonism'
p4714
g4
sS'Europeans'
p4715
g4
sS'ten'
p4716
g7
sS'Cinchona'
p4717
g4
sS'cost'
p4718
g7
sS'acid'
p4719
g7
sS'Rica'
p4720
g7
sS'poison'
p4721
g7
sS'supplies'
p4722
g7
sS'Raspberry'
p4723
g7
sS'specialist'
p4724
g7
sS'Pepsico'
p4725
g7
sS'leg'
p4726
g10
sS'quinquina'
p4727
g7
sS'herb'
p4728
g7
sS'component'
p4729
g7
sS'water'
p4730
g308
sS'Cinchonism'
p4731
g7
sS'photochemistry'
p4732
g7
sS'substance'
p4733
g7
sS'study'
p4734
g4
sS'gluconate'
p4735
g4
sS'amount'
p4736
g4
sS'Quinine'
p4737
S'25'
p4738
sS'action'
p4739
g18
sS'maker'
p4740
g7
sS'quinidine'
p4741
g18
sS'Health'
p4742
g7
sS'hemolysis'
p4743
g7
sS'Nigeria'
p4744
g7
sS'cocaine'
p4745
g7
sS'Europe'
p4746
g4
sS'Tonic'
p4747
g7
sS'Australia'
p4748
g4
sS'troops'
p4749
g4
sS'Condamine'
p4750
g7
sS'century'
p4751
g48
sS'Diet'
p4752
g7
sS'today'
p4753
g7
sS'chloroquine'
p4754
g4
sS'Malaga'
p4755
g4
sS'Denmark'
p4756
g7
sS'company'
p4757
g7
sS'emission'
p4758
g7
sS'infection'
p4759
g7
sS'none'
p4760
g7
sS'word'
p4761
g7
sS'hour'
p4762
g7
sS'hydrochloride'
p4763
g7
sS'abortion'
p4764
g4
sS'Pacific'
p4765
g4
sS'example'
p4766
g7
sS'history'
p4767
g7
sS'heart'
p4768
g4
sS'flavor'
p4769
g7
sS'La'
p4770
g7
sS'agent'
p4771
g7
sS'dosing'
p4772
g7
sS'US'
p4773
g22
sS'Bitter'
p4774
g7
sS'end'
p4775
g7
sS'Heme'
p4776
g7
sS'chemical'
p4777
g7
sS'cardinal'
p4778
g7
sS'pathway'
p4779
g7
sS'Zealand'
p4780
g4
sS'product'
p4781
g7
sS'fever'
p4782
g7
sS'plasmodium'
p4783
g7
sS'cocktail'
p4784
g7
sS'advice'
p4785
g7
sS'arthritis'
p4786
g7
sS'spot'
p4787
g7
sS'biocrystallization'
p4788
g7
sg2505
g7
sS'blood'
p4789
g18
sS'Cranberry'
p4790
g7
sS'monitoring'
p4791
g4
sS'Peruvians'
p4792
g7
sS'heme'
p4793
g4
sS'man'
p4794
g7
sS'attempt'
p4795
g7
sS'liquid'
p4796
g7
sS'Japanese'
p4797
g7
sS'Barolo'
p4798
g7
sS'mauveine'
p4799
g7
sS'Quina'
p4800
g7
sS'wine'
p4801
g18
sS'Fansidar'
p4802
g7
sS'uva'
p4803
g7
sS'Bolivia'
p4804
g7
sS'ligand'
p4805
g7
sS'cinchona'
p4806
S'12'
p4807
sS'plantation'
p4808
g4
sS'production'
p4809
g4
sS'marsh'
p4810
g7
sS'condition'
p4811
g7
sS'World'
p4812
g4
sS'Spain'
p4813
g7
sS'tonic'
p4814
g7
sS'odourless'
p4815
g7
sS'Pfizer'
p4816
g7
sS'Royal'
p4817
g7
sS'Cap'
p4818
g7
sS'Rome'
p4819
g48
sS'therapy'
p4820
g4
sS'half'
p4821
g7
sS'Chinato'
p4822
g7
sS'term'
p4823
g7
sS'Remijia'
p4824
g7
sS'San'
p4825
g7
sS'Sharpless'
p4826
g7
sS'prophylaxis'
p4827
g7
sS'India'
p4828
g7
sS'crypto'
p4829
g7
sS'malarone'
p4830
g7
sS'side'
p4831
g7
sS'constipation'
p4832
g7
sS'weight'
p4833
g7
sS'fish'
p4834
g7
sS'plant'
p4835
g7
sS'brother'
p4836
g7
sS'deficiency'
p4837
g18
sS'Joseph'
p4838
g4
sS'apothecary'
p4839
g7
sS'measurement'
p4840
g7
sS'quantum'
p4841
g4
sS'laboratory'
p4842
g7
sS'category'
p4843
g7
sS'Doering'
p4844
g7
sS'research'
p4845
g7
sS'William'
p4846
g7
sS'health'
p4847
g4
sS'medicine'
p4848
g7
sS'belief'
p4849
g7
sS'circumstance'
p4850
g7
sS'Indonesia'
p4851
g7
sS'quinuclidine'
p4852
g7
sS'solution'
p4853
g7
sS'reason'
p4854
g4
sS'heroin'
p4855
g7
sS'training'
p4856
g7
sS'interaction'
p4857
g7
sS'chiral'
p4858
g7
sS'route'
p4859
g7
sS'Paso'
p4860
g7
sS'soda'
p4861
g7
sS'mouth'
p4862
g4
sS'researcher'
p4863
g7
sS'carbonate'
p4864
g7
sS'Administration'
p4865
g4
sS'hearing'
p4866
g18
sS'Inca'
p4867
g7
sS'affliction'
p4868
g7
sS'thousand'
p4869
g4
sS'moiety'
p4870
g7
sS'dysfunction'
p4871
g7
sS'city'
p4872
g7
sS'temperature'
p4873
g7
sS'historian'
p4874
g7
sS'system'
p4875
g4
sS'Coast'
p4876
g7
sS'regulation'
p4877
g7
sS'fibrillation'
p4878
g7
sS'statement'
p4879
g7
sS'glucose'
p4880
g4
sS'hue'
p4881
g7
sS'part'
p4882
g18
sS'symptom'
p4883
g7
sS'kind'
p4884
g7
sS'commodity'
p4885
g7
sS'isolation'
p4886
g7
sS'tree'
p4887
g22
sS'purpura'
p4888
g7
sS'street'
p4889
g7
sS'Lima'
p4890
g7
sS'result'
p4891
g7
sS'defect'
p4892
g7
sS'seed'
p4893
g18
sS'sulfadoxine'
p4894
g7
sS'concentration'
p4895
g7
sS'Food'
p4896
g4
sS'mechanism'
p4897
g4
sS'Germany'
p4898
g7
sS'Caventou'
p4899
g7
sS'proguanil'
p4900
g7
sS'impairment'
p4901
g48
sS'Germans'
p4902
g7
sS'rigor'
p4903
g7
sS'letter'
p4904
g7
sS'quina-quina'
p4905
g7
sS'grave'
p4906
g7
sS'Unibrew'
p4907
g7
sS'W.E.'
p4908
g7
sS'url'
p4909
g7
sg449
g7
sS'disease'
p4910
g18
sS'annua'
p4911
g7
sS'swamp'
p4912
g7
sS'consumer'
p4913
g7
sS'quantity'
p4914
g4
sS'pope'
p4915
g7
sS'text'
p4916
g7
sS'ground'
p4917
g4
sS'Kingdom'
p4918
g7
sS'conduction'
p4919
g7
sS'A.G.'
p4920
g7
sS'Pelletier'
p4921
g7
sS'Free'
p4922
g7
sS'York'
p4923
g7
sS'Netherlands'
p4924
g7
sS'dihydrochloride'
p4925
g7
sS'Magazine'
p4926
g7
sS'report'
p4927
g7
sS'Organization'
p4928
g7
sS'bar'
p4929
g7
sS'monopoly'
p4930
g7
sS'salumbrino'
p4931
g7
sS'yield'
p4932
g18
sS'priest'
p4933
g7
sS'precaution'
p4934
g7
sS'FDA'
p4935
g10
sS'cramp'
p4936
g10
sS'barr'
p4937
g7
sS'stereoisomer'
p4938
g7
sS'France'
p4939
g7
sS'powder'
p4940
g7
sS'bark'
p4941
S'18'
p4942
sS'sport'
p4943
g7
sS'alternative'
p4944
g7
sS'preparation'
p4945
g4
sS'Jesuit'
p4946
g4
sS'malaria'
p4947
S'18'
p4948
sS'Water'
p4949
g7
sS'platelet'
p4950
g7
sS'use'
p4951
S'11'
p4952
sS'Irn-Bru'
p4953
g7
sS'King'
p4954
g7
sS'Faxe'
p4955
g7
sS'hypothesis'
p4956
g7
sS'aquarium'
p4957
g7
sS'Scientific'
p4958
g7
sS'reaction'
p4959
g7
sS'Snapple'
p4960
g7
sS'prescription'
p4961
g4
sS'country'
p4962
g4
sS'region'
p4963
g7
sS'drug'
p4964
S'13'
p4965
sS'ap\xc3\xa9ritif'
p4966
g7
sS'painkilling'
p4967
g7
sS'supply'
p4968
g4
sS'Pharmaceuticals'
p4969
g7
sS'quinine'
p4970
S'58'
p4971
sS'amine'
p4972
g7
sS'pregnancy'
p4973
g4
sS'irritan'
p4974
g7
sS'War'
p4975
g7
sS'pr'
p4976
g7
sS'west'
p4977
g7
sS'abortifacient'
p4978
g7
sS'Schweppes'
p4979
g4
sS'Detoxification'
p4980
g7
sS'firm'
p4981
g7
sS'hospitalization'
p4982
g7
sS'efficacy'
p4983
g7
sS'transfusion'
p4984
g7
sS'Medicines'
p4985
g7
sS'Uruguay'
p4986
g7
sS'overdose'
p4987
g7
sS'falciparum'
p4988
g7
sS'standard'
p4989
g4
sS'case'
p4990
g10
sS'physician'
p4991
g7
sS'hypotension'
p4992
g7
sS'CDC'
p4993
g7
sS'property'
p4994
g4
sg4432
g7
sS'pound'
p4995
g7
sS'Italy'
p4996
g4
sS'alkaloid'
p4997
g4
sS'sapling'
p4998
g7
sS'im'
p4999
g7
sS'Cryptocaryon'
p5000
g7
sS'doctor'
p5001
g7
sS'Bienaim\xc3\xa9'
p5002
g7
sS'relaxant'
p5003
g7
sS'dihydroxylation'
p5004
g7
sS'development'
p5005
g7
sS'practice'
p5006
g4
sS'drink'
p5007
g18
sS'effect'
p5008
g48
sS'Perkin'
p5009
g7
sS'II'
p5010
g4
sS'purpose'
p5011
g4
sS'opportunity'
p5012
g4
sS'tradition'
p5013
g7
sS'lupus'
p5014
g7
sS'abnormality'
p5015
g7
sS'Pierre'
p5016
g7
sS'quinoline'
p5017
g18
sS'States'
p5018
g398
sS'Quechua'
p5019
g48
sS'model'
p5020
g7
sS'muscle'
p5021
g7
sS'Legatrin'
p5022
g4
sS'United'
p5023
g64
sS'edema'
p5024
g7
sS'colonist'
p5025
g7
sS'dose'
p5026
g10
sS'victim'
p5027
g7
sS'Qualaquin'
p5028
g7
sS'Argentina'
p5029
g7
sS'electrolyte'
p5030
g4
sS'Inc.'
p5031
g7
sS'ethyl'
p5032
g7
sS'death'
p5033
g10
sS'tablet'
p5034
g18
sS'absorption'
p5035
g7
sS'source'
p5036
g4
sS'treatment'
p5037
S'11'
p5038
sS'citizen'
p5039
g7
sS'qualaquin'
p5040
g7
sS'Corse'
p5041
g7
sS'Artemisia'
p5042
g7
sS'Agostino'
p5043
g7
sS'government'
p5044
g7
sS'aggregation'
p5045
g7
sS'Drug'
p5046
g4
sS'inhibition'
p5047
g7
sS'world'
p5048
g4
sS'name'
p5049
g18
sS'loss'
p5050
g7
sg604
g7
sS'parasite'
p5051
g7
sS'London'
p5052
g7
sS'Java'
p5053
g7
sS'export'
p5054
g7
sS'Jesuits'
p5055
g7
sS'New'
p5056
g18
sS'ich'
p5057
g7
sS'colonial'
p5058
g7
sS'R.B.'
p5059
g7
sS'Dry'
p5060
g7
sS'beverage'
p5061
g18
sS'patient'
p5062
g10
sS'power'
p5063
g7
sS'hemozoin'
p5064
g7
sS'Salumbrino'
p5065
g7
sS'digestif'
p5066
g7
sS'colonization'
p5067
g7
sS'pressure'
p5068
g7
sS'manufacturer'
p5069
g7
sS'Barr'
p5070
g7
sS'paralysis'
p5071
g7
sS'pyrimethamine'
p5072
g7
sS'mixer'
p5073
g4
sS'UK'
p5074
g7
sS'Japan'
p5075
g7
sS'block'
p5076
g7
sS'nerve'
p5077
g7
sS'Mutual'
p5078
g7
sS'artemisinin'
p5079
g4
sS'Scotland'
p5080
g7
sS'phase'
p5081
g7
sS'bisulfate'
p5082
g7
sS'Lemon'
p5083
g4
sS'herbalist'
p5084
g7
sS'area'
p5085
g7
sS'gin'
p5086
g4
sS'synthesis'
p5087
g4
sS'form'
p5088
g18
sS'brand'
p5089
g18
sS'failure'
p5090
g7
sS'Kondi'
p5091
g7
sS'catalyst'
p5092
g7
sS'injection'
p5093
g4
sS'flavour'
p5094
g7
sS'Gold'
p5095
g7
sS'Century'
p5096
g7
sS'Woodward'
p5097
g7
sS'uv'
p5098
g7
sS'Africa'
p5099
g10
sS'Egypt'
p5100
g7
sS'Brio'
p5101
g7
sS'problem'
p5102
g4
sS'medication'
p5103
g7
sS'Peru'
p5104
g48
sS'taste'
p5105
g48
sS'year'
p5106
g7
sg567
g4
sS'nm'
p5107
g4
sS'diarrhea'
p5108
g7
sS'atovaquone'
p5109
g7
sS'role'
p5110
g7
sS'Marie'
p5111
g7
sS'Philippines'
p5112
g4
sS'chemist'
p5113
g7
sS'Costa'
p5114
g7
sS'backbone'
p5115
g7
sS'Pellegrino'
p5116
g7
sS'South'
p5117
g4
sS'fluorescence'
p5118
g18
sS'salt'
p5119
g48
sS'Charles'
p5120
g4
sS'Allied'
p5121
g7
sS'Times'
p5122
g7
ssS'quakers'
p5123
(dp5124
S'Canada'
p5125
g10
sS'concept'
p5126
g7
sS'founder'
p5127
g7
sS'Seventh'
p5128
g7
sS'Workers'
p5129
g7
sS'Darby'
p5130
g7
sS'focus'
p5131
g18
sS'dynasty'
p5132
g7
sS'adjective'
p5133
g7
sS'sermon'
p5134
g48
sS'protest'
p5135
g7
sS'code'
p5136
g4
sS'Republic'
p5137
g7
sS'Indiana'
p5138
g4
sS'Moses'
p5139
g4
sS'conversation'
p5140
g10
sS'integrity'
p5141
g4
sS'officiant'
p5142
g4
sS'Brown'
p5143
g4
sS'Gervase'
p5144
g7
sS'Hicksite'
p5145
g7
sS'fellowship'
p5146
g18
sS'passage'
p5147
g7
sS'environment'
p5148
g7
sS'charge'
p5149
g7
sS'Western'
p5150
g7
sS'lord'
p5151
g18
sS'Woolman'
p5152
g7
sS'theology'
p5153
g10
sS'oversight'
p5154
g7
sS'Day'
p5155
g48
sS'norm'
p5156
g7
sS'division'
p5157
g7
sS'Scouting'
p5158
g7
sS'woman'
p5159
S'21'
p5160
sS'Young'
p5161
g7
sS'mainstream'
p5162
g7
sS'Region'
p5163
g4
sS'rise'
p5164
g4
sS'Ministers'
p5165
g18
sS'congregation'
p5166
g4
sS'Braithwaite'
p5167
g7
sS'Brummana'
p5168
g7
sS'redefinition'
p5169
g7
sS'word'
p5170
g18
sS'difference'
p5171
g4
sS'Tasmania'
p5172
g7
sS'condition'
p5173
g7
sS'room'
p5174
g7
sS'service'
p5175
S'13'
p5176
sS'school'
p5177
g7
sS'hour'
p5178
g18
sS'Fellowship'
p5179
g4
sS'Australia'
p5180
S'10'
p5181
sS'brother'
p5182
g4
sS'Netherlands'
p5183
g18
sS'Universalists'
p5184
g18
sS'Paganism'
p5185
g7
sS'round'
p5186
g7
sS'shoe'
p5187
g7
sS'revolution'
p5188
g4
sS'blasphemy'
p5189
g7
sS'abortion'
p5190
g18
sS'School'
p5191
g22
sS'resistance'
p5192
g18
sS'sign'
p5193
g7
sS'past'
p5194
g7
sS'Newberg'
p5195
g7
sS'value'
p5196
g7
sS'Pendle'
p5197
g7
sS'Quaker'
p5198
S'64'
p5199
sS'East'
p5200
g308
sS'Norway'
p5201
g7
sS'Theological'
p5202
g7
sS'belief'
p5203
S'22'
p5204
sS'hymn'
p5205
g48
sS'reconciliation'
p5206
g7
sS'Korea'
p5207
g7
sS'Latin'
p5208
g4
sS'Orthodox'
p5209
S'10'
p5210
sS'section'
p5211
g7
sS'schism'
p5212
g7
sS'business'
p5213
g22
sS'Barclays'
p5214
g4
sS'Conservatives'
p5215
g7
sS'Swarthmore'
p5216
g7
sS'Cape'
p5217
g7
sS'Francis'
p5218
g7
sS'Pradesh'
p5219
g7
sS'method'
p5220
g7
sS'movement'
p5221
S'21'
p5222
sS'body'
p5223
g10
sS'Kingdom'
p5224
g48
sS'Equality'
p5225
g7
sS'exchange'
p5226
g7
sS'clerk'
p5227
g7
sS'Finland'
p5228
g7
sS'Huntley'
p5229
g7
sS'Controversy'
p5230
g7
sS'water'
p5231
g10
sS'Calvary'
p5232
g4
sS'Hallowell'
p5233
g7
sS'separation'
p5234
g7
sS'humility'
p5235
g7
sS'consideration'
p5236
g7
sS'orthodoxy'
p5237
g7
sS'celebration'
p5238
g4
sS'Church-Eastern'
p5239
g7
sS'Universalist'
p5240
g48
sS'convert'
p5241
g7
sS'fum'
p5242
g4
sS'Eucharist'
p5243
g4
sS'Portugal'
p5244
g7
sS'Friendswood'
p5245
g7
sS'inception'
p5246
g7
sS'1842'
p5247
g7
sS'study'
p5248
g4
sS'step'
p5249
g7
sS'experience'
p5250
g64
sS'coffin'
p5251
g7
sS'tolerance'
p5252
g7
sS'Greenleaf'
p5253
g7
sS'Barbados'
p5254
g18
sS'abolition'
p5255
g18
sS'Universalism'
p5256
g7
sS'history'
p5257
g10
sS'salvation'
p5258
g18
sS'honor'
p5259
g7
sS'criticism'
p5260
g4
sS'Mountain'
p5261
g7
sS'Group'
p5262
g4
sS'Greenwich'
p5263
g7
sS'Scriptures'
p5264
g4
sS'ground'
p5265
g7
sS'Robert'
p5266
g4
sS'confession'
p5267
g4
sS'Legislation'
p5268
g7
sS'Haverford'
p5269
g7
sS'Richmond'
p5270
g64
sS'Rhode'
p5271
g18
sS'follower'
p5272
g18
sS'Isaac'
p5273
g18
sS'Mahoba'
p5274
g7
sS'Nigeria'
p5275
g7
sS'total'
p5276
g7
sS'Clarks'
p5277
g4
sS'unit'
p5278
g4
sS'standing'
p5279
g7
sS'use'
p5280
g7
sS'attendance'
p5281
g4
sS'lottery'
p5282
g7
sS'August'
p5283
g7
sS'certificate'
p5284
g7
sS'Nontheist'
p5285
g7
sS'revelation'
p5286
g18
sS'theme'
p5287
g7
sS'governance'
p5288
g4
sS'memorial'
p5289
g22
sS'non-friend'
p5290
g7
sS'doubt'
p5291
g7
sS'Crewdson'
p5292
g4
sS'discipleship'
p5293
g7
sS'type'
p5294
g7
sS'today'
p5295
S'10'
p5296
sS'parliament'
p5297
g7
sS'Sampson'
p5298
g7
sS'definition'
p5299
g7
sS'immersion'
p5300
g4
sS'Denmark'
p5301
g7
sS'company'
p5302
g7
sS'Pitt'
p5303
g7
sS'chocolate'
p5304
g7
sS'grief'
p5305
g7
sS'emigration'
p5306
g7
sS'virtue'
p5307
g7
sS'non-member'
p5308
g7
sS'teaching'
p5309
g22
sS'baby'
p5310
g7
sS'gurneyism'
p5311
g7
sS'effort'
p5312
g7
sS'behalf'
p5313
g7
sS'Conventicle'
p5314
g7
sS'church'
p5315
S'27'
p5316
sS'catechism'
p5317
g7
sS'piety'
p5318
g7
sS'Estonia'
p5319
g7
sS'challenge'
p5320
g7
sS'work'
p5321
g22
sS'Alternatives'
p5322
g7
sS'Beaconite'
p5323
g7
sS'Pacific'
p5324
g18
sS'fellow-christian'
p5325
g7
sS'Awakening'
p5326
g7
sS'Wood'
p5327
g7
sS'Birmingham'
p5328
g7
sS'Whittier'
p5329
g4
sS'clergy'
p5330
g4
sS'making'
p5331
g7
sS'root'
p5332
g7
sS'Children'
p5333
g7
sS'something'
p5334
g4
sS'Protestantism'
p5335
g7
sS'claim'
p5336
g7
sS'Bible'
p5337
S'19'
p5338
sS'indulgence'
p5339
g7
sS'lobbying'
p5340
g7
sS'Inward'
p5341
g7
sS'household'
p5342
g4
sS'Nepal'
p5343
g4
sS'dogma'
p5344
g7
sS'sacrament'
p5345
g10
sS'topic'
p5346
g7
sS'Conference'
p5347
g308
sS'minimum'
p5348
g7
sS'purity'
p5349
g7
sS'phrase'
p5350
g18
sS'Cleveland'
p5351
g4
sS'dress'
p5352
g18
sS'Christmas'
p5353
g4
sS'ceremony'
p5354
g7
sS'autobiography'
p5355
g7
sS'end'
p5356
g7
sS'Lloyds'
p5357
g4
sS'hicksite'
p5358
g4
sS'thing'
p5359
g7
sS'purpose'
p5360
g4
sS'range'
p5361
g4
sS'delay'
p5362
g7
sS'Muslims'
p5363
g4
sS'Hartford'
p5364
g7
sS'Ramallah'
p5365
g4
sS'answer'
p5366
g7
sS'resignation'
p5367
g7
sS'sin'
p5368
g4
sS'economy'
p5369
g18
sS'Zealand'
p5370
g398
sS'tension'
p5371
g7
sS'minority'
p5372
g4
sS'structure'
p5373
g7
sS'advice'
p5374
g4
sS'loyalty'
p5375
g7
sS'British'
p5376
g4
sS'Foreign'
p5377
g7
sS'sustainability'
p5378
g7
sS'Madhya'
p5379
g7
sS'Ottoman'
p5380
g7
sS'date'
p5381
g7
sS'1885'
p5382
g18
sS'Cadbury'
p5383
g4
sS'response'
p5384
g7
sS'1880'
p5385
g7
sS'infallibility'
p5386
g7
sS'move'
p5387
g4
sS'Civil'
p5388
g7
sS'light'
p5389
S'10'
p5390
sS'Semi-Programmed'
p5391
g7
sS'applicant'
p5392
g7
sS'education'
p5393
g18
sS'Community'
p5394
g7
sS'element'
p5395
g4
sS'propriety'
p5396
g7
sS'writ'
p5397
g7
sS'Lloyd'
p5398
g7
sS'Greece'
p5399
g7
sS'order'
p5400
g48
sS'Rowntree'
p5401
g48
sS'Islam'
p5402
g7
sS'Relationships'
p5403
g7
sS'Catholic'
p5404
g7
sS'modesty'
p5405
g7
sS'interpretation'
p5406
g4
sS'office'
p5407
g7
sS'rabbi'
p5408
g7
sS'insight'
p5409
g7
sS'Smith'
p5410
g4
sS'mission'
p5411
g18
sS'stewardship'
p5412
g4
sS'scientist'
p5413
g7
sS'Elias'
p5414
g4
sS'committee'
p5415
g18
sS'deity'
p5416
g4
sS'Bolivia'
p5417
g4
sS'worship'
p5418
S'56'
p5419
sS'Texas'
p5420
g7
sS'member'
p5421
S'34'
p5422
sS'ethic'
p5423
g7
sS'superior'
p5424
g7
sS'style'
p5425
g10
sS'group'
p5426
S'20'
p5427
sS'1835'
p5428
g7
sS'theologian'
p5429
g4
sS'Delhi'
p5430
g7
sS'believer'
p5431
g22
sS'unity'
p5432
g7
sS'Wesley'
p5433
g7
sS'Guatemala'
p5434
g7
sS'Rufus'
p5435
g4
sS'minute'
p5436
g7
sS'Act'
p5437
g18
sS'sanctification'
p5438
g7
sS'policy'
p5439
g4
sS'speaker'
p5440
g18
sS'holiday'
p5441
g7
sS'priesthood'
p5442
g18
sS'Spain'
p5443
g7
sS'FGC'
p5444
g7
sS'Grubb'
p5445
g18
sS'evening'
p5446
g7
sS'Judaism'
p5447
g7
sS'Legatine-Arians'
p5448
g7
sS'orthodox'
p5449
g48
sS'material'
p5450
g7
sS'Thomas'
p5451
g7
sS'nation'
p5452
g7
sS'example'
p5453
g398
sS'Linton'
p5454
g4
sS'Social'
p5455
g7
sS'front'
p5456
g7
sS'Mawr'
p5457
g7
sS'day'
p5458
S'11'
p5459
sS'association'
p5460
g7
sS'Moore'
p5461
g7
sS'term'
p5462
g48
sS'equality'
p5463
g18
sS'quakerism'
p5464
g18
sS'Friends'
p5465
S'203'
p5466
sS'holiness'
p5467
g22
sS'India'
p5468
g308
sS'slavery'
p5469
g48
sS'Lesotho'
p5470
g7
sS'someone'
p5471
g4
sS'Walden'
p5472
g7
sS'conflict'
p5473
g4
sS'Council'
p5474
g22
sS'discipline'
p5475
g4
sS'Kenya'
p5476
g22
sS'meal'
p5477
g7
sS'bond'
p5478
g7
sS'week'
p5479
g308
sS'everyone'
p5480
g18
sS'observance'
p5481
g7
sS'Bryn'
p5482
g7
sS'Faith'
p5483
g48
sS'house'
p5484
g7
sS'Seekers'
p5485
g7
sS'Saints'
p5486
g7
sS'idea'
p5487
g22
sS'Saviour'
p5488
g7
sS'society'
p5489
g7
sS'frequency'
p5490
g7
sS'Angeles'
p5491
g7
sS'preaching'
p5492
g7
sS'year'
p5493
S'17'
p5494
sS'morning'
p5495
g7
sS'event'
p5496
g7
sS'amusement'
p5497
g7
sS'Azusa'
p5498
g7
sS'category'
p5499
g4
sS'living'
p5500
g7
sS'declaration'
p5501
g10
sS'alcohol'
p5502
g4
sS'sentiment'
p5503
g7
sS'Alastair'
p5504
g7
sS'Practice'
p5505
g7
sS'disquiet'
p5506
g7
sS'William'
p5507
g10
sS'I'
p5508
g4
sS'China'
p5509
g7
sS'child'
p5510
S'10'
p5511
sS'1650'
p5512
g7
sS'issue'
p5513
g7
sS'assurance'
p5514
g7
sS'Bundelkhand'
p5515
g4
sS'Town'
p5516
g7
sS'foundation'
p5517
g7
sS'attendee'
p5518
g7
sS'refusal'
p5519
g4
sS'Hanburys'
p5520
g7
sS'theory'
p5521
g308
sS'University'
p5522
g48
sS'Indonesia'
p5523
g7
sS'Liberal'
p5524
g22
sS'reason'
p5525
g7
sS'formation'
p5526
g7
sS'attender'
p5527
g4
sS'colony'
p5528
g4
sS'Sweden'
p5529
g7
sS'ash'
p5530
g7
sS'beginning'
p5531
g18
sS'gospel'
p5532
g48
sS'Evangelicals'
p5533
g7
sS'care'
p5534
g18
sS'advance'
p5535
g7
sS'training'
p5536
g4
sS'revival'
p5537
g4
sS'language'
p5538
g18
sS'ministry'
p5539
g64
sS'Puritan'
p5540
g7
sS'National'
p5541
g22
sS'membership'
p5542
S'11'
p5543
sS'Jesus'
p5544
S'12'
p5545
sS'non-Christians'
p5546
g7
sS'Wilburites'
p5547
g4
sS'person'
p5548
g18
sS'place'
p5549
g48
sS'vision'
p5550
g7
sS'Uganda'
p5551
g4
sS'signature'
p5552
g7
sS'testament'
p5553
g18
sS'Hungary'
p5554
g7
sS'promotion'
p5555
g4
sS'corrupting'
p5556
g7
sS'Speak'
p5557
g7
sS'origin'
p5558
g7
sS'Ontario'
p5559
g7
sS'Wilhelm'
p5560
g18
sS'Mission'
p5561
g18
sS'number'
p5562
g64
sS'Asia'
p5563
g22
sS'one'
p5564
g7
sS'elder'
p5565
g4
sS'Buddhism'
p5566
g7
sS'1873'
p5567
g7
sS'governor'
p5568
g4
sS'Fry'
p5569
g4
sS'anyone'
p5570
g4
sS'confectionery'
p5571
g7
sS'North'
p5572
g398
sS'jew'
p5573
g7
sS'Algeria'
p5574
g4
sS'Centre'
p5575
g7
sS'festival'
p5576
g7
sS'Academy'
p5577
g7
sS'system'
p5578
g7
sS'name'
p5579
g308
sS'wilburite'
p5580
g7
sS'Kaimosi'
p5581
g4
sS'statement'
p5582
g398
sS'Belgium'
p5583
g7
sS'Puritanism'
p5584
g7
sS'man'
p5585
g48
sS'Philippines'
p5586
g4
sS'communion'
p5587
g4
sS'Association'
p5588
g48
sS'Evangelical'
p5589
g7
sS'Declaration'
p5590
g48
sS'relationship'
p5591
g10
sS'month'
p5592
g4
sS'season'
p5593
g4
sS'Gurneyite'
p5594
S'15'
p5595
sS'quaker'
p5596
S'19'
p5597
sS'part'
p5598
S'15'
p5599
sS'punishment'
p5600
g4
sS'sex'
p5601
g7
sS'Lancashire'
p5602
g7
sS'Beanite'
p5603
g7
sS'population'
p5604
g18
sS'distance'
p5605
g7
sS'kind'
p5606
g4
sS'Conferences'
p5607
g7
sS'Creator'
p5608
g7
sS'abstinence'
p5609
g7
sS'Confession'
p5610
g7
sS'project'
p5611
g7
sS'matter'
p5612
g7
sS'future'
p5613
g7
sS'marriage'
p5614
S'18'
p5615
sS'friend'
p5616
S'44'
p5617
sS'seminary'
p5618
g7
sS'feeling'
p5619
g7
sS'oath'
p5620
g4
sS'Unit'
p5621
g7
sS'festivity'
p5622
g7
sS'gathering'
p5623
g7
sS'Guerneyite'
p5624
g7
sS'Richard'
p5625
g7
sS'God'
p5626
S'46'
p5627
sS'Peace'
p5628
g48
sS'Father'
p5629
g7
sS'Philadelphia'
p5630
g48
sS'Saffron'
p5631
g7
sS'Pickering'
p5632
g7
sS'manner'
p5633
g18
sS'need'
p5634
g7
sS'Penn'
p5635
g4
sS'concentration'
p5636
g4
sS'Valley'
p5637
g7
sS'Plain'
p5638
g7
sS'Idaho'
p5639
g7
sS'Quakerism'
p5640
S'16'
p5641
sS'Christian'
p5642
S'16'
p5643
sS'Middle'
p5644
g18
sS'Hannah'
p5645
g7
sS'Price'
p5646
g7
sS'mix'
p5647
g7
sS'emphasis'
p5648
g18
sS'potential'
p5649
g7
sS'Germany'
p5650
g7
sS'Minister'
p5651
g7
sS'Gurney'
p5652
g10
sS'concern'
p5653
g18
sS'Spirit'
p5654
g18
sS'Bank'
p5655
g4
sS'sect'
p5656
g4
sS'Jones'
p5657
g18
sS'Kyrgyzstan'
p5658
g7
sS'excess'
p5659
g7
sS'centre'
p5660
g7
sS'symbolism'
p5661
g4
sS'eucharist'
p5662
g7
sS'Humanistic'
p5663
g7
sS'plan'
p5664
g7
sS'letter'
p5665
g4
sS'organization'
p5666
S'17'
p5667
sS'pair'
p5668
g7
sS'Abraham'
p5669
g7
sS'Whitall'
p5670
g7
sS'Mainline'
p5671
g7
sS'treaty'
p5672
g4
sS'High'
p5673
g7
sS'principle'
p5674
g48
sS'Croatia'
p5675
g7
sS'subgroup'
p5676
g7
sS'notion'
p5677
g7
sS'affair'
p5678
g7
sS'selection'
p5679
g7
sS'America'
p5680
S'15'
p5681
sS'Toleration'
p5682
g7
sS'text'
p5683
g7
sS'jurisdiction'
p5684
g7
sS'Recorded'
p5685
g7
sS'Wilson'
p5686
g7
sS'Wem'
p5687
g7
sS'sanctity'
p5688
g7
sS'United'
p5689
S'24'
p5690
sS'relation'
p5691
g308
sS'Hill'
p5692
g7
sS'Palestine'
p5693
g4
sS'faith'
p5694
S'25'
p5695
sS'supporter'
p5696
g7
sS'Bhopal'
p5697
g7
sS'geography'
p5698
g7
sS'Plymouth'
p5699
g7
sS'objector'
p5700
g7
sS'divinity'
p5701
g7
sS'Service'
p5702
g18
sS'tithing'
p5703
g7
sS'guidance'
p5704
g4
sS'proportion'
p5705
g7
sS'institution'
p5706
g4
sS'spirituality'
p5707
g18
sS'Beacon'
p5708
g7
sS'spontaneity'
p5709
g7
sS'York'
p5710
g4
sS'Fisher'
p5711
g7
sS'Keswick'
p5712
g7
sS'adherent'
p5713
g7
sS'D.C.'
p5714
g7
sS'Tanzania'
p5715
g4
sS'Violence'
p5716
g7
sS'bear'
p5717
g7
sS'aim'
p5718
g18
sS'community'
p5719
S'14'
p5720
sS'Turk'
p5721
g4
sS'perfection'
p5722
g4
sS'reversal'
p5723
g7
sS'magistrate'
p5724
g7
sS'report'
p5725
g7
sS'rite'
p5726
g7
sS'Bevan'
p5727
g7
sS'Wilburite'
p5728
g7
sS'Benezet'
p5729
g7
sS'Alliance'
p5730
g7
sS'Canberra'
p5731
g7
sS'tobacco'
p5732
g7
sS'New'
p5733
S'16'
p5734
sS'Sally'
p5735
g7
sS'Washington'
p5736
g7
sS'pacifism'
p5737
g7
sS'Kong'
p5738
g7
sS'banking'
p5739
g7
sS'priest'
p5740
g4
sS'Manchester'
p5741
g18
sS'humanist'
p5742
g7
sS'activity'
p5743
g4
sS'Protestant'
p5744
g308
sS'Allen'
p5745
g7
sS'crucifixion'
p5746
g7
sS'husband'
p5747
g7
sS'view'
p5748
S'11'
p5749
sS'Fox'
p5750
S'17'
p5751
sS'Fritchley'
p5752
g7
sS'non-conformist'
p5753
g7
sS'set'
p5754
g7
sS'temperance'
p5755
g7
sS'honesty'
p5756
g7
sS'pronoun'
p5757
g7
sS'King'
p5758
g4
sS'admonition'
p5759
g7
sS'Mid-India'
p5760
g4
sS'France'
p5761
g7
sS'individual'
p5762
g4
sS'result'
p5763
g7
sS'sea'
p5764
g7
sS'Churches'
p5765
S'13'
p5766
sS'hero'
p5767
g7
sS'calendar'
p5768
g48
sS'John'
p5769
S'13'
p5770
sS'creationism'
p5771
g7
sS'voyage'
p5772
g7
sS'practice'
p5773
S'24'
p5774
sS'Church'
p5775
S'12'
p5776
sS'Iowa'
p5777
g7
sS'reform'
p5778
g4
sS'review'
p5779
g7
sS'Holiness'
p5780
g10
sS'Oregon'
p5781
g4
sS'label'
p5782
g7
sS'state'
p5783
g10
sS'Terry'
p5784
g7
sS'July'
p5785
g7
sS'SPICES'
p5786
g7
sS'approach'
p5787
g7
sS'FCNL'
p5788
g7
sS'Ghana'
p5789
g7
sS'breakaway'
p5790
g7
sS'College'
p5791
S'15'
p5792
sS'Central'
p5793
g18
sS'EFCI'
p5794
g7
sS'parent'
p5795
g4
sS'importance'
p5796
g4
sS'U.S.'
p5797
g7
sS'Sri'
p5798
g7
sS'denomination'
p5799
g18
sS'South'
p5800
g308
sS'opposition'
p5801
g22
sS'understanding'
p5802
g308
sS'pagan'
p5803
g10
sS'fgc'
p5804
g7
sS'country'
p5805
g18
sS'region'
p5806
g18
sS'hypocrisy'
p5807
g7
sS'drug'
p5808
g7
sS'Month'
p5809
g4
sS'missionary'
p5810
g48
sS'reply'
p5811
g7
sS'contribution'
p5812
g7
sS'expression'
p5813
g7
sS'Worship'
p5814
g4
sS'World'
p5815
S'14'
p5816
sS'Varanasi'
p5817
g7
sS'English'
p5818
g7
sS'Tammany'
p5819
g7
sS'Earlham'
p5820
g4
sS'mirroring'
p5821
g7
sS'Los'
p5822
g7
sS'homosexuality'
p5823
g7
sS'Penington'
p5824
g7
sS'Ireland'
p5825
g398
sS'village'
p5826
g7
sS'pregnancy'
p5827
g7
sS'table'
p5828
g7
sS'trust'
p5829
g7
sS'Midwest'
p5830
g7
sS'War'
p5831
g48
sS'conference'
p5832
g7
sS'efcus'
p5833
g4
sS'union'
p5834
g18
sS'Southern'
p5835
g4
sS'verse'
p5836
g7
sS'Backhouse'
p5837
g7
sS'teacher'
p5838
g18
sS'California'
p5839
g7
sS'interest'
p5840
g4
sS'Queensland'
p5841
g7
sS'territory'
p5842
g7
sS'meeting'
p5843
S'122'
p5844
sS'Algiers'
p5845
g4
sS'Georgia'
p5846
g7
sS'diversity'
p5847
g7
sS'Pennsylvania'
p5848
g48
sS'mind'
p5849
g7
sS'Aotearoa'
p5850
g7
sS'search'
p5851
g7
sS'Nations'
p5852
g7
sS'atonement'
p5853
g18
sS'moderation'
p5854
g7
sS'representative'
p5855
g7
sS'1866'
p5856
g7
sS'wedding'
p5857
g4
sS'spirit'
p5858
g10
sS'present'
p5859
g7
sS'Jews'
p5860
g4
sS'case'
p5861
g4
sS'Darwin'
p5862
g18
sS'conception'
p5863
g7
sS'look'
p5864
g7
sS'International'
p5865
S'10'
p5866
sS'Cockermouth'
p5867
g7
sS'Waldmeier'
p5868
g7
sS'promoter'
p5869
g7
sS'General'
p5870
g64
sS'will'
p5871
g4
sS'while'
p5872
g7
sS'sexuality'
p5873
g7
sS'PLC'
p5874
g7
sS'behavior'
p5875
g10
sS'shift'
p5876
g7
sS'Fell'
p5877
g10
sS'aid'
p5878
g7
sS'Taiwan'
p5879
g7
sS'voice'
p5880
g7
sS'procedure'
p5881
g7
sS'birthright'
p5882
g7
sS'Madagascar'
p5883
g7
sS'Italy'
p5884
g7
sS'century'
p5885
S'24'
p5886
sS'dissent'
p5887
g7
sS'diversification'
p5888
g7
sS'agnostic'
p5889
g7
sS'evolution'
p5890
g10
sS'solemnisation'
p5891
g7
sS'obstacle'
p5892
g7
sS'Convention'
p5893
g7
sS'partner'
p5894
g7
sS'Quakers'
p5895
S'56'
p5896
sS'controversy'
p5897
g4
sS'Easter'
p5898
g7
sS'Nathaniel'
p5899
g7
sS'rowntree'
p5900
g7
sS'Israel'
p5901
g7
sS'fwcc'
p5902
g4
sS'descent'
p5903
g7
sS'author'
p5904
g7
sS'Regional'
p5905
g4
sS'cross'
p5906
g4
sS'unite'
p5907
g7
sS'Newman'
p5908
g7
sS'discourse'
p5909
g7
sS'Zimbabwe'
p5910
g7
sS'speech'
p5911
g4
sS'split'
p5912
g22
sS'Island'
p5913
g48
sS'survey'
p5914
g4
sS'document'
p5915
g18
sS'Lanka'
p5916
g7
sS'couple'
p5917
g22
sS'Boulton'
p5918
g7
sS'clearness'
p5919
g7
sS'hermeneutic'
p5920
g4
sS'Pearsall'
p5921
g7
sS'Register'
p5922
g7
sS'slave'
p5923
g18
sS'Hicks'
p5924
g4
sS'Institute'
p5925
g7
sS'decision-making'
p5926
g7
sS'Hicksite-Orthodox'
p5927
g7
sS'hand'
p5928
g7
sS'Malone'
p5929
g7
sS'action'
p5930
g18
sS'Latvia'
p5931
g7
sS'Humanist'
p5932
g7
sS'Ambulance'
p5933
g4
sS'teetotalism'
p5934
g7
sS'opportunity'
p5935
g7
sS'tradition'
p5936
g398
sS'reference'
p5937
g4
sS'cycle'
p5938
g7
sS'fasting'
p5939
g7
sS'task'
p5940
g7
sS'reflection'
p5941
g7
sS'Religious'
p5942
S'11'
p5943
sS'George'
p5944
S'13'
p5945
sS'1970'
p5946
g7
sS'States'
p5947
S'11'
p5948
sS'May'
p5949
g4
sS'relief'
p5950
g4
sS'mother'
p5951
g7
sS'Church-Southwest'
p5952
g7
sS'Lebanon'
p5953
g18
sS'Botswana'
p5954
g7
sS'Nelson'
p5955
g7
sS'etiquette'
p5956
g7
sS'peace'
p5957
g308
sS'birth'
p5958
g7
sS'Revival'
p5959
g7
sS'Heron'
p5960
g7
sS'Lithuania'
p5961
g7
sS'Cambodia'
p5962
g7
sS'Conservative'
p5963
g4
sS'Switzerland'
p5964
g7
sS'foot'
p5965
g7
sS'Sunday'
p5966
g308
sS'aspect'
p5967
g7
sS'world'
p5968
S'10'
p5969
sS'Heavenly'
p5970
g7
sS'love'
p5971
g18
sS'alternative'
p5972
g7
sS'apostasy'
p5973
g7
sS'continent'
p5974
g4
sS'Christ'
p5975
S'28'
p5976
sS'vice-chancellor'
p5977
g7
sS'handshake'
p5978
g4
sS'death'
p5979
g7
sS'Hicksites'
p5980
g18
sS'Theory'
p5981
g7
sS'majority'
p5982
g4
sS'Duchy'
p5983
g7
sS'Christening'
p5984
g7
sS'Victoria'
p5985
g7
sS'Margaret'
p5986
g18
sS'Connecticut'
p5987
g7
sS'spread'
p5988
g7
sS'adoption'
p5989
g7
sS'bank'
p5990
g7
sS'prison'
p5991
g7
sS'Provident'
p5992
g4
sS'hat'
p5993
g4
sS'humanity'
p5994
g7
sS'match'
p5995
g7
sS'conscription'
p5996
g7
sS'Delaware'
p5997
g4
sS'Smalltown'
p5998
g4
sS'Wilbur'
p5999
g18
sS'government'
p6000
g4
sS'read'
p6001
g7
sS'James'
p6002
g7
sS'regard'
p6003
g18
sS'period'
p6004
g48
sS'Project'
p6005
g7
sS'Hindus'
p6006
g7
sS'suffering'
p6007
g7
sS'Wilberforce'
p6008
g7
sS'Luxembourg'
p6009
g7
sS'listening'
p6010
g7
sS'justice'
p6011
g18
sS'judge'
p6012
g7
sS'Renaissance'
p6013
g18
sS'Barclay'
p6014
g18
sS'desire'
p6015
g7
sS'Jamaica'
p6016
g7
sS'Albania'
p6017
g7
sS'England'
p6018
S'19'
p6019
sS'success'
p6020
g4
sS'gift'
p6021
g4
sS'message'
p6022
g22
sS'adult'
p6023
g18
sS'consensus'
p6024
g7
sS'London'
p6025
S'10'
p6026
sS'Theophilus'
p6027
g7
sS'Valiant'
p6028
g7
sS'dilution'
p6029
g7
sS'Species'
p6030
g7
sS'Witness'
p6031
g7
sS'Auckland'
p6032
g7
sS'West'
p6033
g7
sS'creed'
p6034
g4
sS'creation'
p6035
g4
sS'appellation'
p6036
g7
sS'non-violence'
p6037
g4
sS'Society'
p6038
S'19'
p6039
sS'Committee'
p6040
S'11'
p6041
sS'Rwanda'
p6042
g48
sS'abolitionist'
p6043
g7
sS'Wales'
p6044
g398
sS'home'
p6045
g4
sS'Mary'
p6046
g7
sS'recognition'
p6047
g7
sS'Life'
p6048
g4
sS'singing'
p6049
g4
sS'decision'
p6050
g22
sS'Guilford'
p6051
g7
sS'non-theism'
p6052
g7
sS'conservative'
p6053
g4
sS'religion'
p6054
g7
sS'Palmers'
p6055
g7
sS'market'
p6056
g18
sS'non-theist'
p6057
g4
sS'Consultation'
p6058
g10
sS'leader'
p6059
g4
sS'Bryant'
p6060
g4
sS'Europe'
p6061
g10
sS'process'
p6062
g4
sS'run'
p6063
g7
sS'truth'
p6064
g398
sS'power'
p6065
g18
sS'acronym'
p6066
g4
sS'Barton'
p6067
g7
sS'David'
p6068
g7
sS'restructuring'
p6069
g7
sS'Ripley'
p6070
g7
sS'pluralism'
p6071
g7
sS'substitution'
p6072
g7
sS'resurrection'
p6073
g7
sS'manufacturing'
p6074
g4
sS'Russia'
p6075
g7
sS'First'
p6076
g48
sS'Thought'
p6077
g7
sS'Romania'
p6078
g7
sS'lifestyle'
p6079
g7
sS'extension'
p6080
g7
sS'polity'
p6081
g7
sS'December'
p6082
g7
sS'biscuit'
p6083
g7
sS'Christianity'
p6084
S'12'
p6085
sS'meaning'
p6086
g7
sS'US'
p6087
g48
sS'Austria'
p6088
g7
sS'restoration'
p6089
g7
sS'Americans'
p6090
g7
sS'UK'
p6091
g18
sS'testimony'
p6092
g22
sS'Japan'
p6093
g7
sS'tomb'
p6094
g7
sS'other'
p6095
S'12'
p6096
sS'silence'
p6097
g7
sS'Lord'
p6098
g48
sS'tribe'
p6099
g4
sS'Hong'
p6100
g7
sS'communication'
p6101
g7
sS'Woodbrooke'
p6102
g7
sS'Scotland'
p6103
g7
sS'commitment'
p6104
g7
sS'Bennet'
p6105
g4
sS'Truth'
p6106
g7
sS'involvement'
p6107
g7
sS'doctrine'
p6108
g64
sS'family'
p6109
g64
sS'remembrance'
p6110
g7
sS'Pastoral'
p6111
g7
sS'Network'
p6112
g7
sS'pharmaceutical'
p6113
g7
sS'categorization'
p6114
g7
sS'1980'
p6115
g7
sS'area'
p6116
g18
sS'support'
p6117
g7
sS'people'
p6118
S'10'
p6119
sS'Anthony'
p6120
g7
sS'christian'
p6121
g10
sS'cultivation'
p6122
g7
sS'Mombasa'
p6123
g7
sS'way'
p6124
g398
sS'initiation'
p6125
g7
sS'war'
p6126
g48
sS'opponent'
p6127
g7
sS'manufacture'
p6128
g7
sS'Rocky'
p6129
g7
sS'form'
p6130
g308
sS'offer'
p6131
g7
sS'January'
p6132
g4
sS'visitation'
p6133
g7
sS'Lent'
p6134
g18
sS'pastor'
p6135
g18
sS'Schools'
p6136
g7
sS'link'
p6137
g7
sS'authority'
p6138
g48
sS'spiritualization'
p6139
g4
sS'Namibia'
p6140
g7
sS'role'
p6141
g308
sS'Greensboro'
p6142
g7
sS'rejection'
p6143
g7
sS'Office'
p6144
g7
sS'reading'
p6145
g48
sS'Czech'
p6146
g7
sS'wife'
p6147
g7
sS'Africa'
p6148
S'17'
p6149
sS'record'
p6150
g4
sS'Britain'
p6151
S'24'
p6152
sS'Joseph'
p6153
g22
sS'pest'
p6154
g7
sS'Burundi'
p6155
g48
sS'Ohio'
p6156
g308
sS'baptism'
p6157
g10
sS'Lancaster'
p6158
g7
sS'Charles'
p6159
g7
sS'Quietism'
p6160
g7
sS'USA'
p6161
g398
sS'Acceptance'
p6162
g7
sS'influence'
p6163
g4
sS'life'
p6164
S'16'
p6165
sS'evidence'
p6166
g7
sS'Edward'
p6167
g48
sS'prayer'
p6168
g4
sS'Pemba'
p6169
g7
sS'ship'
p6170
g7
sS'path'
p6171
g4
sS'Quietist'
p6172
g7
sS'liberalism'
p6173
g7
sS'brethren'
p6174
g7
sg567
S'20'
p6175
sS'anthology'
p6176
g7
sS'variety'
p6177
g4
sS'objection'
p6178
g7
sS'Sultan'
p6179
g7
sS'Twelfth'
p6180
g7
sS'book'
p6181
g10
sS'republic'
p6182
g7
sS'witness'
p6183
g308
sS'branch'
p6184
g18
sS'income'
p6185
g7
sS'test'
p6186
g7
sS'Carolina'
p6187
g4
sS'Mount'
p6188
g7
sS'Great'
p6189
S'11'
p6190
sS'vocabulary'
p6191
g7
sS'time'
p6192
S'10'
p6193
sS'Wilmington'
p6194
g4
sS'Practical'
p6195
g7
sS'Arbroath'
p6196
g7
sS'chance'
p6197
g7
sS'AFSC'
p6198
g7
sS'arbiter'
p6199
g7
sS'peak'
p6200
g7
sS'occasion'
p6201
g7
sS'persecution'
p6202
g4
sS'Americas'
p6203
g7
sS'Baltimore'
p6204
g7
sS'evangelicalism'
p6205
g7
sS'voting'
p6206
g7
sS'Holy'
p6207
g398
sS'apology'
p6208
g7
sS'Banking'
p6209
g7
sS'atheist'
p6210
g4
sS'age'
p6211
g7
sS'Modern'
p6212
g7
sS'Mehmed'
p6213
g7
sS'rule'
p6214
g7
sS'Saturday'
p6215
g7
sS'portion'
p6216
g7
sS'simplicity'
p6217
g10
sS'Benares'
p6218
g7
sS'Empire'
p6219
g7
sS'Integrity'
p6220
g7
sS'minister'
p6221
g4
ssS'quantity_theory_of_money'
p6222
(dp6223
S'stock'
p6224
g7
sS'origin'
p6225
g7
sS'concept'
p6226
g4
sS'phenomenon'
p6227
g4
sS'gold'
p6228
g7
sS'restriction'
p6229
g7
sS'essence'
p6230
g7
sS'wayside'
p6231
g7
sS'datum'
p6232
g7
sS'focus'
p6233
g18
sS'Irving'
p6234
g7
sS'product'
p6235
g18
sS'relation'
p6236
g18
sS'thesis'
p6237
g4
sS'existence'
p6238
g7
sS'alternative'
p6239
g7
sS'Ludwig'
p6240
g4
sS'debate'
p6241
g7
sS'indicator'
p6242
g7
sS'inverse'
p6243
g7
sS'formula_14'
p6244
g7
sS'formula_15'
p6245
g48
sS'formula_16'
p6246
g18
sS'instance'
p6247
g7
sS'thinking'
p6248
g7
sS'formula_19'
p6249
g18
sS'Friedman'
p6250
S'12'
p6251
sS'similarity'
p6252
g4
sS'proportion'
p6253
g7
sS'Monetary'
p6254
g4
sS'labor'
p6255
g4
sS'source'
p6256
g7
sS'nominal'
p6257
g7
sS'condition'
p6258
g4
sS'factor'
p6259
g4
sS'policy'
p6260
g7
sS'World'
p6261
g7
sS'Quantity'
p6262
g398
sS'loan'
p6263
g7
sS'equilibrium'
p6264
g18
sS'intermediation'
p6265
g7
sS'return'
p6266
g7
sS'mainstream'
p6267
g4
sS'checking'
p6268
g7
sS'relationship'
p6269
g22
sS'bid'
p6270
g7
sS'de'
p6271
g7
sS'disagreement'
p6272
g7
sS'school'
p6273
g4
sS'Value'
p6274
g7
sS'liability'
p6275
g7
sS'inflation'
p6276
g48
sS'borrower'
p6277
g7
sS'Henry'
p6278
g4
sS'timing'
p6279
g7
sS'world'
p6280
g7
sS'silver'
p6281
g7
sS'association'
p6282
g7
sS'portion'
p6283
g18
sS'proponent'
p6284
g7
sS'disequilibrium'
p6285
g4
sS'variable'
p6286
g22
sS'level'
p6287
S'13'
p6288
sS'counter-position'
p6289
g7
sS'issue'
p6290
g7
sS'Wicksell'
p6291
g64
sS'drop'
p6292
g7
sS'Foville'
p6293
g7
sS'public'
p6294
g18
sg1800
g18
sS'convenience'
p6295
g7
sS'truth'
p6296
g7
sS'final-product'
p6297
g7
sS'instability'
p6298
g7
sS'Monetarist'
p6299
g7
sS'rk'
p6300
g7
sS'equation'
p6301
S'12'
p6302
sS'formula_18'
p6303
g48
sS'view'
p6304
g4
sS'Copernicus'
p6305
g4
sg4099
g4
sS'bill'
p6306
g4
sS'version'
p6307
g7
sS'dichotomy'
p6308
g4
sS'deposit'
p6309
g18
sS'creation'
p6310
g7
sS'School'
p6311
g7
sS'sign'
p6312
g7
sS'past'
p6313
g7
sS'rate'
p6314
g64
sS'cost'
p6315
g7
sS'result'
p6316
g4
sS'Interest'
p6317
g7
sS'measurement'
p6318
g7
sS'New'
p6319
g7
sS'Newcomb'
p6320
g7
sg543
g48
sS'employment'
p6321
g7
sS'monetarist'
p6322
g4
sS'theory'
p6323
S'35'
p6324
sS'index'
p6325
g7
sS'capacity'
p6326
g7
sS'business'
p6327
g7
sS'lead'
p6328
g7
sS'profit'
p6329
g7
sS'economist'
p6330
g48
sS'exchange'
p6331
g308
sS'increase'
p6332
g64
sS'national-income'
p6333
g7
sS'state'
p6334
g7
sS'mv'
p6335
g7
sS'identification'
p6336
g7
sS'capital'
p6337
g48
sS'import'
p6338
g7
sS'cause'
p6339
g7
sS'University'
p6340
g7
sS'discovery'
p6341
g7
sS'body'
p6342
g7
sS'core'
p6343
g7
sS'process'
p6344
g7
sS'run'
p6345
g22
sS'ability'
p6346
g18
sS'degree'
p6347
g7
sS'Stuart'
p6348
g4
sS'importance'
p6349
g4
sS'equivalent'
p6350
g7
sS'Jean'
p6351
g4
sS'theorist'
p6352
g7
sS'David'
p6353
g4
sS'difficulty'
p6354
g7
sS'doctrine'
p6355
g4
sS'hypothesis'
p6356
g7
sS'term'
p6357
g4
sS'extent'
p6358
g7
sS'output'
p6359
g22
sS'ratio'
p6360
g7
sS'sophistication'
p6361
g7
sS'P.'
p6362
g7
sS'security'
p6363
g7
sS'change'
p6364
S'12'
p6365
sS'Theory'
p6366
S'11'
p6367
sS'Revolution'
p6368
g7
sS'consumption'
p6369
g7
sS'money'
p6370
S'57'
p6371
sS'country'
p6372
g7
sS'industry'
p6373
g7
sS'economics'
p6374
g48
sS'example'
p6375
g18
sS'Maynard'
p6376
g48
sS'turn'
p6377
g7
sS'amount'
p6378
g18
sS'Paper'
p6379
g7
sS'approach'
p6380
g18
sS'swing'
p6381
g7
sS'contribution'
p6382
g7
sS'Employment'
p6383
g7
sS'other'
p6384
g4
sS'criticism'
p6385
g7
sS'Simon'
p6386
g7
sS'Reform'
p6387
g4
sS'causation'
p6388
g7
sS'tract'
p6389
g4
sS'number'
p6390
g4
sS'entrepreneur'
p6391
g7
sS'follower'
p6392
g7
sS'Salamanca'
p6393
g7
sS'exogeneity'
p6394
g7
sS'applicability'
p6395
g7
sS'U.S.'
p6396
g7
sS'Keynes'
p6397
S'23'
p6398
sS'market'
p6399
g4
sS'size'
p6400
g7
sS'decline'
p6401
g7
sS'story'
p6402
g7
sS'targeting'
p6403
g7
sS'wealth'
p6404
g4
sS'A.C.'
p6405
g7
sS'Nature'
p6406
g7
sS'introduction'
p6407
g7
sS'simplification'
p6408
g7
sS'support'
p6409
g7
sS'py'
p6410
g7
sS'historian'
p6411
g7
sS'response'
p6412
g7
sS'Bieda'
p6413
g7
sS'Pigou'
p6414
g7
sS'attack'
p6415
g7
sS'assumption'
p6416
g7
sS'development'
p6417
g18
sS'asset'
p6418
g7
sS'statement'
p6419
g7
sS'time'
p6420
g4
sS'helicopter'
p6421
g7
sS'start'
p6422
g7
sS'Cambridge'
p6423
g22
sS'function'
p6424
g4
sS'direction'
p6425
g7
sS'interest'
p6426
g4
sS'form'
p6427
g48
sS'precision'
p6428
g7
sS'idea'
p6429
g18
sS'volume'
p6430
g7
sS'Academic'
p6431
g7
sS'construction'
p6432
g7
sS'expenditure'
p6433
g18
sS'bank'
p6434
S'14'
p6435
sS'Fisher'
p6436
g4
sS'tradition'
p6437
g7
sS'coinage'
p6438
g7
sS'production'
p6439
g7
sS'observation'
p6440
g7
sS'account'
p6441
g18
sS'Milton'
p6442
g4
sS'circulation'
p6443
g48
sS'currency'
p6444
g48
sS'rival'
p6445
g7
sS'Marshall'
p6446
g7
sS'work'
p6447
g7
sS'regularity'
p6448
g7
sS'value'
p6449
g22
sS'General'
p6450
g4
sS'record'
p6451
g7
sS'Britain'
p6452
g7
sS'growth'
p6453
g7
sS'contrary'
p6454
g7
sg4191
g7
sg1844
S'10'
p6455
sS'Thornton'
p6456
g18
sS'balance'
p6457
g7
sS'p.'
p6458
g7
sS'study'
p6459
g7
sS'control'
p6460
g7
sS'claim'
p6461
g7
sS'Mill'
p6462
g4
sS'Alfred'
p6463
g4
sS'figure'
p6464
g4
sS'century'
p6465
g7
sS'Federal'
p6466
g7
sS'goods'
p6467
g22
sS'von'
p6468
g4
sS'cash'
p6469
g22
sS'agent'
p6470
g7
sS'evidence'
p6471
g7
sS'savings'
p6472
g7
sS'critic'
p6473
g7
sS'revival'
p6474
g7
sS'sector'
p6475
g4
sS'formulation'
p6476
g7
sS'Historically'
p6477
g7
sS'Hume'
p6478
g4
sS'John'
p6479
g22
sg567
g4
sS'Knut'
p6480
g4
sS'credit'
p6481
g4
sS'enquiry'
p6482
g7
sS'Marx'
p6483
g308
sS'discussion'
p6484
g7
sS'Money'
p6485
g18
sS'formula_33'
p6486
g7
sS'mechanism'
p6487
g4
sS'formula_31'
p6488
g7
sS'note'
p6489
g7
sS'application'
p6490
g7
sS'emphasis'
p6491
g4
sS'book'
p6492
g7
sS'role'
p6493
g7
sS'supply'
p6494
S'22'
p6495
sS'income'
p6496
g18
sS'panic'
p6497
g7
sS'illusion'
p6498
g7
sS'economy'
p6499
g7
sS'breakdown'
p6500
g7
sS'simplicity'
p6501
g7
sS'Great'
p6502
g7
sS'rise'
p6503
g48
sS'living'
p6504
g7
sS'structure'
p6505
g7
sS'price'
p6506
S'28'
p6507
sS'Mises'
p6508
g4
sS'driver'
p6509
g7
sS'effect'
p6510
g48
sS'variation'
p6511
g4
sS'hand'
p6512
g7
sg4448
g7
sS'power'
p6513
g7
sS'cheque'
p6514
g7
sS'aggregate'
p6515
g7
sS'law'
p6516
g4
sS'veil'
p6517
g4
sS'payment'
p6518
g7
sS'identity'
p6519
g7
sS'Reserve'
p6520
g7
sS'demand'
p6521
g64
sS'transaction'
p6522
g10
sS'formula_29'
p6523
g7
sS'formula_28'
p6524
g7
sS'commodity'
p6525
g10
sS'Credit'
p6526
g4
sS'formula_26'
p6527
g7
sg449
g18
sS'element'
p6528
g4
sS'thought'
p6529
g7
sS'complexity'
p6530
g7
sS'part'
p6531
g7
sS'command'
p6532
g7
sS'principle'
p6533
g4
sS'Bodin'
p6534
g4
sS'Keynesianism'
p6535
g7
sS'velocity'
p6536
g22
sS'model'
p6537
g7
sS'notion'
p6538
g7
sS'Karl'
p6539
g7
sS'quantity'
p6540
S'28'
p6541
ssS'quantum_dot'
p6542
(dp6543
S'cytosol'
p6544
g4
sS'amplifier'
p6545
g7
sS'month'
p6546
g4
sS'nanoparticle'
p6547
g10
sS'computation'
p6548
g7
sS'adjustment'
p6549
g7
sS'backlight'
p6550
g7
sS'retention'
p6551
g7
sS'semiconductor'
p6552
S'15'
p6553
sS'gamut'
p6554
g7
sS'monomer'
p6555
g10
sS'technique'
p6556
g10
sS'removal'
p6557
g7
sS'surfactant'
p6558
g7
sS'probe'
p6559
g18
sS'advantage'
p6560
g4
sS'bandgap'
p6561
g7
sS'wave'
p6562
g7
sS'blockade'
p6563
g7
sS'electron'
p6564
S'14'
p6565
sS'\xce\xbc'
p6566
g7
sS'difference'
p6567
g7
sS'nanoparticle-accumulation'
p6568
g7
sS'condition'
p6569
g48
sS'level'
p6570
g308
sS'issue'
p6571
g7
sS'solution'
p6572
S'10'
p6573
sS'convenience'
p6574
g7
sS'inspection'
p6575
g7
sS'challenge'
p6576
g7
sS'application'
p6577
S'19'
p6578
sS'zn'
p6579
g4
sS'ten'
p6580
g7
sS'cost'
p6581
g4
sS'hot-injection'
p6582
g7
sS'sulfide'
p6583
g18
sS'ii-vi'
p6584
g7
sS'acid'
p6585
g7
sS'leakage'
p6586
g7
sS'trapping'
p6587
g7
sS'leakage.then'
p6588
g7
sS'sum'
p6589
g4
sS'thickness'
p6590
g7
sS'cell'
p6591
S'21'
p6592
sS'Reed'
p6593
g7
sS'fluorophore'
p6594
g7
sS'template'
p6595
g7
sS'InP/ZnS'
p6596
g7
sS'method'
p6597
S'12'
p6598
sS'coefficient'
p6599
g7
sS'electroporation'
p6600
g7
sS'meg'
p6601
g7
sS'led'
p6602
g10
sS'behavior'
p6603
g7
sS'reporter'
p6604
g7
sS'component'
p6605
g4
sS'therapeutics'
p6606
g7
sS'change'
p6607
g7
sS'box'
p6608
g18
sS'precursor'
p6609
g10
sS'shift'
p6610
g7
sS'study'
p6611
g18
sS'amount'
p6612
g7
sS'resonance'
p6613
g7
sS'toxicity'
p6614
g7
sS'Hydrogel'
p6615
g7
sS'diameter'
p6616
g18
sS'Photodetector'
p6617
g7
sS'Robert'
p6618
g7
sS'flexibility'
p6619
g7
sS'illumination'
p6620
g7
sS'extinction'
p6621
g4
sS'kind'
p6622
g7
sS'unit'
p6623
g7
sS'Klavs'
p6624
g7
sS'eye'
p6625
g7
sS'consumption'
p6626
g7
sS'June'
p6627
g7
sS'process'
p6628
S'14'
p6629
sS'type'
p6630
g4
sS'today'
p6631
g4
sS'advance'
p6632
g7
sS'binding'
p6633
g7
sS'company'
p6634
g4
sS'emission'
p6635
g22
sS'glass'
p6636
g7
sS'Metal-Free'
p6637
g7
sS'qdp'
p6638
g48
sS'hole'
p6639
g48
sS'cdse'
p6640
g22
sS'hour'
p6641
g7
sS'equation'
p6642
g4
sS'work'
p6643
g4
sS'mh'
p6644
g7
sS'mechanic'
p6645
g7
sS'example'
p6646
g308
sS'proof'
p6647
g7
sS'calculation'
p6648
g7
sS'household'
p6649
g7
sS'agent'
p6650
g7
sS'sphere'
p6651
g4
sS'information'
p6652
g18
sS'arsenide'
p6653
g7
sS'end'
p6654
g18
sS'technology'
p6655
g7
sS'feature'
p6656
g4
sS'machine'
p6657
g7
sS'lamp'
p6658
g7
sS'CuInS/ZnS'
p6659
g7
sS'bulk-manufacture'
p6660
g7
sS'toxic'
p6661
g7
sS'profile'
p6662
g7
sS'product'
p6663
g7
sS'structure'
p6664
g48
sS'lab'
p6665
g7
sS'cadmium'
p6666
g398
sS'lighting'
p6667
g7
sS'multiplication'
p6668
g7
sS'attempt'
p6669
g7
sS'liquid'
p6670
g4
sS'light'
p6671
g64
sS'element'
p6672
g7
sS'annealing'
p6673
g7
sS'correlation'
p6674
g7
sS'order'
p6675
g7
sS'__'
p6676
g7
sS'restriction'
p6677
g7
sS'embryogenesis'
p6678
g7
sS'stability'
p6679
g4
sS'scientist'
p6680
g7
sS'White'
p6681
g7
sS'MIT'
p6682
g7
sS'chemical'
p6683
g10
sS'ligand'
p6684
g7
sS'methodology'
p6685
g4
sS'consumer-goods'
p6686
g7
sS'platform'
p6687
g7
sS'absence'
p6688
g7
sS'production'
p6689
g308
sS'pixel'
p6690
g7
sS'combination'
p6691
g7
sS'material'
p6692
g398
sS'Langer'
p6693
g7
sS'framework'
p6694
g7
sS'milestone'
p6695
g7
sS'front'
p6696
g7
sS'Mechanics'
p6697
g7
sS'term'
p6698
g4
sS'brightness'
p6699
g7
sS'Ekimov'
p6700
g7
sS'bond'
p6701
g7
sS'endosome'
p6702
g7
sS'permeation'
p6703
g7
sS'generation'
p6704
g4
sS'series'
p6705
g7
sS'energy'
p6706
S'26'
p6707
sS'frequency'
p6708
g4
sS'Armon'
p6709
g7
sS'microscopy'
p6710
g4
sS'measurement'
p6711
g7
sS'quantum'
p6712
S'118'
p6713
sS'operation'
p6714
g7
sS'E.'
p6715
g7
sS'matrix'
p6716
g7
sS'gradient'
p6717
g7
sS'particle'
p6718
S'12'
p6719
sS'viability'
p6720
g4
sS'research'
p6721
g7
sS'increase'
p6722
g7
sS'QD-WLED'
p6723
g7
sS'electronics'
p6724
g7
sS'sensor'
p6725
g7
sS'red'
p6726
g7
sS'solvent'
p6727
g7
sS'solution-processing'
p6728
g7
sS'possibility'
p6729
g7
sS'diagnostic'
p6730
g7
sS'release'
p6731
g7
sS'reason'
p6732
g7
sS'formation'
p6733
g7
sS'imaging'
p6734
g398
sS'definition'
p6735
g7
sS'interaction'
p6736
g7
sS'route'
p6737
g7
sS'transition'
p6738
g4
sS'silicon'
p6739
g4
sS'length'
p6740
g18
sS'pudding'
p6741
g7
sS'circuit'
p6742
g4
sS'signature'
p6743
g7
sS'excitation'
p6744
g18
sS'fd'
p6745
g7
sS'encoding'
p6746
g7
sS'researcher'
p6747
g4
sS'one'
p6748
g7
sS'array'
p6749
g4
sS'quality'
p6750
g4
sS'size'
p6751
S'26'
p6752
sS'interchange'
p6753
g7
sS'temperature'
p6754
g398
sS'width'
p6755
g7
sS'system'
p6756
g308
sS'assumption'
p6757
g7
sS'toc'
p6758
g7
sS'scheme'
p6759
g7
sS'shell'
p6760
g18
sS'photobleaching'
p6761
g7
sS'tool'
p6762
g7
sS'transistor'
p6763
g4
sS'box.these'
p6764
g7
sS'part'
p6765
g7
sS'television'
p6766
g7
sS'hundred'
p6767
g4
sS'intensity'
p6768
g7
sS'phage'
p6769
g4
sS'acquisition'
p6770
g7
sS'result'
p6771
g18
sS'cytoplasm'
p6772
g7
sS'Brus'
p6773
g7
sS'spectrum'
p6774
g398
sS'need'
p6775
g4
sS'concentration'
p6776
g10
sS'strength'
p6777
g7
sS'consortium'
p6778
g7
sS'instance'
p6779
g7
sS'potential'
p6780
g10
sS'molecule'
p6781
g10
sS'virus'
p6782
g48
sS'device'
p6783
g18
sS'Vision'
p6784
g7
sS'volume'
p6785
g18
sS'kg'
p6786
g7
sS'observation'
p6787
g7
sS'flow'
p6788
g18
sS'aptamer'
p6789
g7
sS'trafficking'
p6790
g7
sS'nanostructure'
p6791
g4
sS'organism'
p6792
g4
sS'dot'
p6793
S'130'
p6794
sS'quantity'
p6795
g7
sS'selection'
p6796
g4
sS'gold'
p6797
g7
sS'phosphide'
p6798
g7
sS'Alexei'
p6799
g7
sS'decade'
p6800
g7
sS'ground'
p6801
g7
sS'impact'
p6802
g4
sS'photodetector'
p6803
g7
sS'implementation'
p6804
g7
sS'factor'
p6805
g18
sS'peptide'
p6806
g18
sS'Louis'
p6807
g7
sS'Larger'
p6808
g7
sS'expectation'
p6809
g7
sS'dye'
p6810
g10
sS'selenide'
p6811
g48
sS'substrate'
p6812
g18
sS'yield'
p6813
g7
sS'qd'
p6814
g7
sS'ban'
p6815
g7
sS'implication'
p6816
g7
sS'vision'
p6817
g7
sS'body'
p6818
g7
sS'Colloidal'
p6819
g4
sS'irradiation'
p6820
g4
sS'detection'
p6821
g7
sS'culture'
p6822
g7
sS'RGB'
p6823
g7
sS'computer'
p6824
g7
sS'radius'
p6825
g22
sS'migration'
p6826
g7
sS'bacteriophage'
p6827
g4
sS'concern'
p6828
g7
sS'wire'
p6829
g7
sS'Jensen'
p6830
g7
sS'pattern'
p6831
g7
sS'diode'
p6832
g18
sS'nucleation'
p6833
g4
sS'state'
p6834
g10
sS'membrane'
p6835
g7
sS'incompatibility'
p6836
g7
sS'Sony'
p6837
g7
sS'Nanotechnology'
p6838
g7
sS'approach'
p6839
g4
sS'U.S.'
p6840
g7
sS'discovery'
p6841
g7
sS'ability'
p6842
g4
sS'nature'
p6843
g7
sS'scanning'
p6844
g4
sS'lymphocyte'
p6845
g7
sS'scalability'
p6846
g7
sS'efficiency'
p6847
g7
sS'interface'
p6848
g7
sS'article'
p6849
g7
sS'distribution'
p6850
g18
sS'thumb'
p6851
g7
sS'reaction'
p6852
g4
sS'region'
p6853
g18
sS'heating'
p6854
g7
sS'Thomson'
p6855
g18
sS'Semiclassical'
p6856
g7
sS'connection'
p6857
g7
sS'qubit'
p6858
g18
sS'cancer'
p6859
g7
sS'color'
p6860
g398
sS'period'
p6861
g7
sS'cd'
p6862
g7
sS'm13'
p6863
g4
sS'modeling'
p6864
g7
sS'streptavidin'
p6865
g7
sS'seeding'
p6866
g4
sS'atom'
p6867
g398
sS'targeting'
p6868
g48
sS'source'
p6869
g18
sS'addition'
p6870
g4
sS'window'
p6871
g7
sS'Optical'
p6872
g7
sS'photon'
p6873
g48
sS'x900a'
p6874
g7
sS'bulk'
p6875
g4
sS'confinement'
p6876
S'10'
p6877
sS'encapsulation'
p6878
g7
sS'spin'
p6879
g7
sS'case'
p6880
g7
sS'laser'
p6881
g4
sS'batch'
p6882
g4
sg543
g7
sS'nanofilm'
p6883
g7
sS'photolysis'
p6884
g7
sS'eye.qd-led'
p6885
g7
sS'Quantum'
p6886
S'21'
p6887
sS'property'
p6888
S'15'
p6889
sS'sirna'
p6890
g7
sS'polymer'
p6891
g7
sS'coating'
p6892
g7
sS'site'
p6893
g4
sS'surface'
p6894
g4
sS'Semiconductor'
p6895
g7
sS'cluster'
p6896
g7
sS'II-VI'
p6897
g7
sS'protein'
p6898
g7
sS'mouse'
p6899
g7
sS'pseudopotential'
p6900
g7
sS'surveillance'
p6901
g7
sS'drawback'
p6902
g7
sS'inquiry'
p6903
g7
sS'modification'
p6904
g7
sS'composition'
p6905
g7
sS'effect'
p6906
g22
sS'hand'
p6907
g7
sS'ion'
p6908
g4
sS'aggregate'
p6909
g7
sS'fabrication'
p6910
g7
sS'tracking'
p6911
g18
sS'band'
p6912
g48
sS'focal-plane'
p6913
g7
sS'well'
p6914
g7
sS'analysis'
p6915
g7
sS'bohr'
p6916
g18
sS'edge'
p6917
g7
sS'Schr\xc3\xb6dinger'
p6918
g7
sS'model'
p6919
g308
sS'dimension'
p6920
g4
sS'compound'
p6921
g48
sS'sequestration'
p6922
g7
sS'shape'
p6923
g4
sS'voltage'
p6924
g7
sS'alternative'
p6925
g7
sS'candidate'
p6926
g7
sS'density'
p6927
g4
sS'absorption'
p6928
g7
sS'passive'
p6929
g7
sS'lattice'
p6930
g7
sS'treatment'
p6931
g18
sS'usage'
p6932
g7
sS'aggregation'
p6933
g4
sS'lcd'
p6934
g4
sS'biocomposite'
p6935
g7
sS'background'
p6936
g7
sS'world'
p6937
g7
sS'loss'
p6938
g7
sS'immunology'
p6939
g7
sS'nsom'
p6940
g7
sS'success'
p6941
g7
sS'Computing'
p6942
g7
sS'Electrochemical'
p6943
g7
sS'drainage'
p6944
g7
sS'rearrangement'
p6945
g7
sS'indium'
p6946
g4
sS'Mark'
p6947
g7
sS'growth'
p6948
S'10'
p6949
sS'table'
p6950
g4
sS'nanometer'
p6951
g7
sS'recognition'
p6952
g7
sS'Dots'
p6953
g4
sS'scale'
p6954
g7
sS'colloidal'
p6955
g308
sS'Lee'
p6956
g4
sS'tmv'
p6957
g7
sS'\xce\xb5r'
p6958
g7
sS'integration'
p6959
g4
sS'biology'
p6960
g7
sS'assembly'
p6961
g48
sS'power'
p6962
g7
sS'journal'
p6963
g7
sS'processing'
p6964
g7
sS'use'
p6965
g10
sS'stem'
p6966
g7
sS'step'
p6967
g7
sS'dna'
p6968
g7
sS'manufacturing'
p6969
g18
sS'spectrum-shift'
p6970
g7
sS'panel'
p6971
g4
sS'goods'
p6972
g7
sS'plum'
p6973
g7
sS'simulation'
p6974
g7
sS'tumor'
p6975
g398
sS'range'
p6976
g48
sS'carrier'
p6977
g4
sS'antibody'
p6978
g7
sS'photovoltaic'
p6979
g7
sS'implantation'
p6980
g7
sS'image'
p6981
g18
sS'pair'
p6982
g18
sS'nanodevice'
p6983
g7
sS'Sharei'
p6984
g7
sS'area'
p6985
g7
sS'transfer'
p6986
g7
sS'question'
p6987
g7
sS'capacitance'
p6988
g4
sS'nanocrystal'
p6989
S'10'
p6990
sS'shell-filling'
p6991
g4
sS'way'
p6992
g4
sS'synthesis'
p6993
g398
sS'function'
p6994
g7
sS'medium'
p6995
g7
sS'form'
p6996
g7
sS'through-put'
p6997
g7
sS'delivery'
p6998
g18
sS'heat'
p6999
g7
sS'lymph'
p7000
g7
sS'crystallite'
p7001
g7
sS'injection'
p7002
g48
sS'photostability'
p7003
g4
sS'count'
p7004
g7
sS'characteristic'
p7005
g7
sS'uv'
p7006
g18
sS'maximum'
p7007
g7
sS'crystal'
p7008
g22
sS'spectroscopy'
p7009
g4
sS'problem'
p7010
g4
sS'display'
p7011
g308
sS'ccfl'
p7012
g7
sS'tonne'
p7013
g7
sS'constant'
p7014
g7
sS'computing'
p7015
g7
sS'metal'
p7016
g48
sS'year'
p7017
g7
sS'metastasis'
p7018
g7
sS'lifetime'
p7019
g18
sS'film'
p7020
g7
sS'regime'
p7021
g48
sS'nm'
p7022
g4
sS'variety'
p7023
g18
sS'defocus'
p7024
g7
sS'exciton'
p7025
S'10'
p7026
sS'tip'
p7027
g7
sS'field'
p7028
g4
sS'role'
p7029
g7
sS'transport'
p7030
g4
sS'QD'
p7031
g7
sS'node'
p7032
g7
sS'Coulomb'
p7033
g7
sS'variation'
p7034
g7
sS'bonding'
p7035
g7
sS'gap'
p7036
g48
sS'coloration'
p7037
g4
sS'lead'
p7038
g4
sS'fluorescence'
p7039
g10
sS'mask'
p7040
g7
sS'kilogram'
p7041
g18
sS'xbr'
p7042
g7
sS'excretion'
p7043
g7
sS'mass'
p7044
g48
sS'plasmon'
p7045
g7
sS'time'
p7046
g10
ssS'queensland'
p7047
(dp7048
S'kilometre'
p7049
g7
sS'Frontier'
p7050
g4
sS'port'
p7051
g4
sS'Daintree'
p7052
g18
sS'Sugar'
p7053
g7
sS'Vaz'
p7054
g7
sS'Theme'
p7055
g7
sS'Station'
p7056
g7
sS'Olympics'
p7057
g7
sS'Fig'
p7058
g7
sS'zinc'
p7059
g7
sS'aviation'
p7060
g7
sS'Department'
p7061
g7
sS'mill'
p7062
g7
sS'settlement'
p7063
g308
sS'competition'
p7064
g7
sS'row'
p7065
g7
sS'birthplace'
p7066
g7
sS'Championship'
p7067
g7
sS'zone'
p7068
g7
sS'peanut'
p7069
g7
sS'Bunya'
p7070
g4
sS'charge'
p7071
g7
sS'Western'
p7072
g7
sS'Tourism'
p7073
g4
sS'Day'
p7074
g7
sS'southwest'
p7075
g4
sS'woman'
p7076
g7
sS'federation'
p7077
g7
sS'unbeaten'
p7078
g7
sS'Cook'
p7079
g10
sS'airfare'
p7080
g7
sS'ticket'
p7081
g7
sS'condition'
p7082
g4
sS'Origin'
p7083
g7
sS'level'
p7084
g7
sS'Brisbane'
p7085
S'24'
p7086
sS'Premier'
p7087
g22
sS'humidity'
p7088
g7
sS'Barwon'
p7089
g7
sS'affiliation'
p7090
g4
sS'team'
p7091
g22
sS'Paul'
p7092
g4
sS'south-west'
p7093
g7
sS'Griffith'
p7094
g7
sS'Burleigh'
p7095
g7
sS'Europeans'
p7096
g7
sS'population'
p7097
S'12'
p7098
sS'force'
p7099
g7
sS'mi'
p7100
g7
sS'encroachment'
p7101
g7
sS'Lone'
p7102
g7
sS'crop'
p7103
g7
sS'Ipswich'
p7104
g7
sS'rate'
p7105
g4
sS'cost'
p7106
g7
sS'Greyback'
p7107
g7
sS'governor'
p7108
g308
sS'Heritage'
p7109
g7
sS'Robina'
p7110
g7
sS'investment'
p7111
g7
sS'constitution'
p7112
g18
sS'Tablelands'
p7113
g7
sS'Kanakas'
p7114
g7
sS'section'
p7115
g4
sS'anniversary'
p7116
g18
sS'Hamilton'
p7117
g7
sS'acpa'
p7118
g7
sS'toll'
p7119
g7
sS'supplies'
p7120
g7
sS'ground'
p7121
g7
sS'State'
p7122
g18
sS'transportation'
p7123
g4
sS'Daydream'
p7124
g7
sS'Australians'
p7125
g7
sS'honour'
p7126
g4
sS'Age'
p7127
g7
sS'Irwin'
p7128
g7
sS'Islander'
p7129
g7
sS'water'
p7130
g7
sS'Arthur'
p7131
g7
sS'suicide'
p7132
g7
sS'separation'
p7133
g7
sS'Currumbin'
p7134
g4
sS'extreme'
p7135
g4
sS'Commonwealth'
p7136
g7
sS'Cane'
p7137
g4
sS'Chinese'
p7138
g7
sS'study'
p7139
g7
sS'Queen'
p7140
g308
sS'Range'
p7141
g4
sS'experience'
p7142
g7
sS'exploitation'
p7143
g7
sS'amount'
p7144
g7
sS'survey'
p7145
g7
sS'Technology'
p7146
g4
sS'influx'
p7147
g7
sS'conditioning'
p7148
g7
sS'Constitution'
p7149
g7
sS'danger'
p7150
g7
sS'Robert'
p7151
g7
sS'Edenglassie'
p7152
g7
sS'FC'
p7153
g7
sS'decrease'
p7154
g7
sS'Wales'
p7155
S'11'
p7156
sS'total'
p7157
g7
sS'gateway'
p7158
g7
sS'landscape'
p7159
g4
sS'use'
p7160
g7
sS'Australia'
p7161
S'35'
p7162
sS'Dumaresq'
p7163
g4
sS'August'
p7164
g7
sS'destination'
p7165
g7
sS'June'
p7166
g308
sS'governance'
p7167
g7
sS'm1'
p7168
g7
sS'Pacific'
p7169
g308
sS'Bay'
p7170
g308
sS'Towns'
p7171
g7
sS'type'
p7172
g7
sS'capital'
p7173
g398
sS'today'
p7174
g4
sS'York'
p7175
g18
sS'Lang'
p7176
g7
sS'rainfall'
p7177
g308
sS'October'
p7178
g7
sS'Mount'
p7179
g4
sS'St'
p7180
g7
sS'Stanthorpe'
p7181
g18
sS'glass'
p7182
g7
sS'labourer'
p7183
g7
sS'Nash'
p7184
g7
sS'town'
p7185
g48
sS'tribunal'
p7186
g7
sS'hour'
p7187
g7
sS'Fraser'
p7188
g18
sS'Crown'
p7189
g7
sS'longitude'
p7190
g7
sS'era'
p7191
g7
sS'December'
p7192
g18
sS'Maryborough'
p7193
g7
sS'ferry'
p7194
g4
sS'Moreton'
p7195
g48
sS'root'
p7196
g7
sS'example'
p7197
g4
sS'history'
p7198
g18
sS'Police'
p7199
g7
sS'Northern'
p7200
g4
sS'ranking'
p7201
g7
sS'process'
p7202
g7
sS'Rainforests'
p7203
g4
sS'bus'
p7204
g48
sS'Mr.'
p7205
g7
sS'minimum'
p7206
g7
sS'Edmund'
p7207
g7
sS'council'
p7208
g4
sS'Dutch'
p7209
g4
sS'station'
p7210
g7
sS'Australian'
p7211
g7
sS'Parliament'
p7212
g10
sS'end'
p7213
g7
sS'Federation'
p7214
g7
sS'Beach'
p7215
g4
sS'damage'
p7216
g7
sS'establishment'
p7217
g7
sS'dominance'
p7218
g7
sS'km2'
p7219
g7
sS'fare'
p7220
g7
sS'plant'
p7221
g7
sS'de'
p7222
g4
sS'Nathan'
p7223
g7
sS'explorer'
p7224
g18
sS'beauty'
p7225
g7
sS'UnderWater'
p7226
g7
sS'summer'
p7227
g48
sS'advice'
p7228
g7
sS'thunderstorm'
p7229
g7
sS'collection'
p7230
g7
sS'Ocean'
p7231
g4
sS'motorway'
p7232
g7
sS'produce'
p7233
g7
sS'date'
p7234
g7
sS'court'
p7235
g7
sS'parallel'
p7236
g7
sS'winter'
p7237
g4
sS'period'
p7238
g10
sS'attempt'
p7239
g7
sS'grant'
p7240
g7
sS'education'
p7241
g7
sS'coal'
p7242
g18
sS'Logan'
p7243
g7
sS'deposit'
p7244
g7
sS'skirmish'
p7245
g7
sS'inhabitant'
p7246
g7
sS'wind'
p7247
g7
sS'Catholic'
p7248
g7
sS'office'
p7249
g7
sS'meter'
p7250
g7
sS'entity'
p7251
g7
sS'Warwick'
p7252
g7
sS'existence'
p7253
g7
sS'White'
p7254
g7
sS'Final'
p7255
g7
sS'MODIS'
p7256
g4
sS'River'
p7257
g10
sS'group'
p7258
g7
sS'organisation'
p7259
g4
sS'facility'
p7260
g4
sS'hat-trick'
p7261
g7
sS'production'
p7262
g7
sS'Jersey'
p7263
g4
sS'latitude'
p7264
g7
sS'World'
p7265
g10
sS'ally'
p7266
g7
sS'lookout'
p7267
g7
sS'Wildlife'
p7268
g48
sS'tourist'
p7269
g7
sS'food'
p7270
g7
sS'Herbert'
p7271
g7
sS'Carnarvon'
p7272
g7
sS'trade'
p7273
g7
sS'Melanesian'
p7274
g7
sS'tourism'
p7275
g4
sS'day'
p7276
g7
sS'bank'
p7277
g7
sS'Supreme'
p7278
g7
sS'Liberal'
p7279
g4
sS'name'
p7280
g7
sS'III'
p7281
g7
sS'university'
p7282
g48
sS'slavery'
p7283
g7
sS'Authority'
p7284
g7
sS'mode'
p7285
g7
sS'Council'
p7286
g7
sS'economy'
p7287
g10
sS'Transport'
p7288
g7
sS'mean'
p7289
g7
sS'week'
p7290
g7
sS'signing'
p7291
g7
sS'house'
p7292
g7
sS'Museum'
p7293
g7
sS'Antoine'
p7294
g7
sS'member'
p7295
g18
sS'Riversleigh'
p7296
g7
sS'operation'
p7297
g7
sS'event'
p7298
g48
sS'amusement'
p7299
g7
sS'living'
p7300
g7
sS'network'
p7301
g7
sS'populace'
p7302
g7
sS'seaport'
p7303
g7
sS'Pocket'
p7304
g7
sS'cyclone'
p7305
g7
sS'Tasmania'
p7306
g7
sS'Super'
p7307
g7
sS'Ker'
p7308
g7
sS'highway'
p7309
g7
sS'AFL'
p7310
g7
sS'barrier'
p7311
g7
sS'rail'
p7312
g48
sS'University'
p7313
S'12'
p7314
sS'million'
p7315
g7
sS'formation'
p7316
g7
sS'coastline'
p7317
g7
sS'Rockhampton'
p7318
g7
sS'accommodation'
p7319
g7
sS'temperature'
p7320
S'11'
p7321
sS'mainland'
p7322
g7
sS'service'
p7323
g22
sS'language'
p7324
g7
sS'Point'
p7325
g4
sS'ratepayer'
p7326
g7
sS'treaty'
p7327
g7
sS'Centre'
p7328
g7
sS'George'
p7329
g4
sS'NASA'
p7330
g7
sS'place'
p7331
g18
sS'threat'
p7332
g7
sS'rainforest'
p7333
g4
sS'WhiteWater'
p7334
g7
sS'support'
p7335
g7
sS'south'
p7336
g7
sS'origin'
p7337
g7
sS'copper'
p7338
g4
sS'Island'
p7339
S'12'
p7340
sS'number'
p7341
g10
sS'preservation'
p7342
g7
sS'Spectroradiometer'
p7343
g7
sS'Wild'
p7344
g7
sS'picnic'
p7345
g7
sS'navigator'
p7346
g48
sS'north-east'
p7347
g7
sS'size'
p7348
g7
sS'city'
p7349
S'11'
p7350
sS'North'
p7351
g18
sS'publication'
p7352
g7
sS'district'
p7353
g18
sS'Eastern'
p7354
g7
sS'system'
p7355
g10
sS'Coast'
p7356
S'13'
p7357
sS'Lieutenant'
p7358
g18
sS'Larry'
p7359
g7
sS'moisture'
p7360
g7
sS'banana'
p7361
g7
sS'mining'
p7362
g18
sS'Census'
p7363
g7
sS'Roar'
p7364
g7
sS'season'
p7365
g48
sS'Qantas'
p7366
g7
sS'park'
p7367
g4
sS'Labourers'
p7368
g7
sS'alumina'
p7369
g7
sS'part'
p7370
g48
sS'Hervey'
p7371
g18
sS'rain'
p7372
g4
sS'qld'
p7373
g7
sS'institution'
p7374
g7
sS'tfr'
p7375
g7
sS'Reds'
p7376
g7
sS'warfare'
p7377
g4
sS'Canberra'
p7378
g7
sS'recruitment'
p7379
g7
sS'instruction'
p7380
g7
sS'frontier'
p7381
g4
sS'final'
p7382
g7
sS'politics'
p7383
g7
sS'Sea'
p7384
g18
sS'transport'
p7385
g18
sS'Rail'
p7386
g4
sS'bridge'
p7387
g7
sS'Boigu'
p7388
g7
sS'Court'
p7389
g4
sS'Sydney'
p7390
g18
sS'Richard'
p7391
g7
sS'Movie'
p7392
g7
sS'cattle'
p7393
g7
sS'Counsel'
p7394
g7
sS'Douglas'
p7395
g7
sS'Regions'
p7396
g7
sS'sport'
p7397
g18
sS'Main'
p7398
g7
sS'border'
p7399
g10
sS'smallpox'
p7400
g7
sS'Carpentaria'
p7401
g7
sS'East'
p7402
g18
sS'Bellenden'
p7403
g7
sS'shore'
p7404
g7
sS'mechanism'
p7405
g7
sS'Lucia'
p7406
g7
sS'note'
p7407
g7
sS'majority'
p7408
g18
sS'contact'
p7409
g7
sS'Snow'
p7410
g7
sS'January'
p7411
g4
sS'performance'
p7412
g7
sS'Gympie'
p7413
g7
sS'Bank'
p7414
g7
sS'Party'
p7415
g18
sS'Rugby'
p7416
g7
sS'Lucinda'
p7417
g7
sS'tornado'
p7418
g4
sS'price'
p7419
g7
sS'Hawaii'
p7420
g7
sS'letter'
p7421
g18
sS'Isa'
p7422
g7
sS'medal'
p7423
g7
sS'police'
p7424
g7
sS'Bond'
p7425
g7
sS'Portuguese'
p7426
g7
sS'Sanctuary'
p7427
g48
sS'mineral'
p7428
g7
sS'Hinchinbrook'
p7429
g7
sS'industry'
p7430
g308
sS'shopping/gifts'
p7431
g7
sS'Ita'
p7432
g7
sS'refining'
p7433
g4
sS'pineapple'
p7434
g7
sS'occasion'
p7435
g4
sS'Cooksland'
p7436
g7
sS'fact'
p7437
g7
sS'sector'
p7438
g7
sS'affair'
p7439
g7
sS'medalist'
p7440
g7
sS'gold'
p7441
g22
sS'GSP'
p7442
g4
sS'visitor'
p7443
g7
sS'Research'
p7444
g7
sS'south-east'
p7445
g7
sS'Gondwana'
p7446
g7
sS'Dalrymple'
p7447
g7
sS'Wet'
p7448
g4
sS'corner'
p7449
g7
sS'availability'
p7450
g7
sS'decade'
p7451
g4
sS'geography'
p7452
g7
sS'Kingdom'
p7453
g7
sS'title'
p7454
g4
sS'series'
p7455
g4
sS'proclamation'
p7456
g4
sS'proportion'
p7457
g7
sS'French'
p7458
g4
sS'Firebirds'
p7459
g7
sS'Aborigines'
p7460
g18
sS'fuel'
p7461
g7
sS'bushfire'
p7462
g7
sS'wool'
p7463
g4
sS'Imaging'
p7464
g7
sS'plate'
p7465
g7
sS'occupation'
p7466
g7
sS'Louis'
p7467
g7
sS'massacre'
p7468
g7
sS'freezing'
p7469
g7
sS'coast'
p7470
g398
sS'Gross'
p7471
g4
sS'Moderate-Resolution'
p7472
g7
sS'Cape'
p7473
g48
sS'Gladstone'
p7474
g48
sS'bronco'
p7475
g7
sS'closure'
p7476
g7
sS'Gold'
p7477
g308
sS'New'
p7478
S'13'
p7479
sS'bauxite'
p7480
g4
sS'watershed'
p7481
g7
sS'Victoria'
p7482
g308
sS'river'
p7483
g7
sS'secretary'
p7484
g7
sS'set'
p7485
g7
sS'art'
p7486
g7
sS'disaster'
p7487
g7
sS'District'
p7488
g7
sS'principal'
p7489
g7
sS'National'
p7490
g308
sS'migration'
p7491
g7
sS'sea'
p7492
g7
sS'Grand'
p7493
g7
sS'calendar'
p7494
g7
sS'Redcliffe'
p7495
g7
sS'arm'
p7496
g7
sS'Park'
p7497
g22
sS'statehood'
p7498
g7
sS'state'
p7499
S'51'
p7500
sS'Twentieth'
p7501
g7
sS'July'
p7502
g4
sS'arrival'
p7503
g18
sS'King'
p7504
g7
sS'Central'
p7505
g7
sS'Tree'
p7506
g7
sS'Whitsundays'
p7507
g7
sS'extent'
p7508
g7
sS'Islands'
p7509
g7
sS'legislature'
p7510
g7
sS'league'
p7511
g48
sS'climate'
p7512
g48
sS'Lockyer'
p7513
g7
sS'joke'
p7514
g7
sS'region'
p7515
g22
sS'Strait'
p7516
g18
sS'waterfall'
p7517
g7
sS'Steve'
p7518
g7
sg108
g7
sS'grain'
p7519
g7
sS'Statistical'
p7520
g7
sS'Grandchester'
p7521
g7
sS'contribution'
p7522
g7
sS'Townsville'
p7523
g18
sS'ANZ'
p7524
g7
sS'point'
p7525
g4
sS'Guinea'
p7526
g4
sS'colony'
p7527
S'12'
p7528
sS'Netball'
p7529
g7
sS'migrant'
p7530
g7
sS'Forest'
p7531
g7
sS'Fossil'
p7532
g7
sS'Assistants'
p7533
g7
sS'beach'
p7534
g7
sS'War'
p7535
g4
sS'boat'
p7536
g7
sS'lighthouse'
p7537
g7
sS'Shires'
p7538
g7
sS'instrument'
p7539
g7
sS'union'
p7540
g4
sS'west'
p7541
g18
sS'Southern'
p7542
g4
sS'Cairns'
p7543
g48
sS'subsidy'
p7544
g7
sS'Queensland'
p7545
S'110'
p7546
sS'territory'
p7547
g4
sS'meeting'
p7548
g7
sS'labour'
p7549
g4
sS'location'
p7550
g4
sS'life'
p7551
g4
sS'flight'
p7552
g4
sS'weipa'
p7553
g4
sS'nrl'
p7554
g7
sS'thousand'
p7555
g7
sS'worker'
p7556
g7
sS'gap'
p7557
g7
sS'policy'
p7558
g7
sS'expenditure'
p7559
g7
sS'minister'
p7560
g4
sS'Dunmore'
p7561
g7
sS'Upper'
p7562
g7
sS'Force'
p7563
g7
sS'value'
p7564
g7
sS'air'
p7565
g7
sS'Oxley'
p7566
g4
sS'taxi'
p7567
g7
sS'country'
p7568
g18
sS'Campbell'
p7569
g4
sS'flooding'
p7570
g7
sS'settler'
p7571
g18
sS'ganging'
p7572
g7
sS'City'
p7573
g7
sS'cane'
p7574
g10
sS'Dividing'
p7575
g4
sS'century'
p7576
g22
sS'site'
p7577
g18
sS'surface'
p7578
g7
sS'regularity'
p7579
g7
sS'Capital'
p7580
g7
sS'technology'
p7581
g7
sS'result'
p7582
g4
sS'party'
p7583
g7
sS'Product'
p7584
g4
sS'Mooloolaba'
p7585
g7
sS'author'
p7586
g7
sS'patent'
p7587
g18
sS'Regional'
p7588
g7
sS'airport'
p7589
g18
sS'campus'
p7590
g4
sS'Newman'
p7591
g4
sS'Fleay'
p7592
g7
sS'restaurants/meals'
p7593
g7
sS'Birdsville'
p7594
g7
sS'James'
p7595
g22
sS'vegetable'
p7596
g7
sS'monarch'
p7597
g7
sS'development'
p7598
g7
sS'satellite'
p7599
g7
sS'oil'
p7600
g7
sS'Alma'
p7601
g7
sS'mountain'
p7602
g4
sS'Institute'
p7603
g7
sS'Coral'
p7604
g4
sS'Maroons'
p7605
g7
sS'effect'
p7606
g4
sS'springtime'
p7607
g7
sS'II'
p7608
g7
sS'suburb'
p7609
g7
sS'Airport'
p7610
S'10'
p7611
sS'fruit'
p7612
g7
sS'purpose'
p7613
g7
sg567
S'13'
p7614
sS'nation'
p7615
g4
sS'Dawson'
p7616
g7
sS'warming'
p7617
g7
sS'annexe'
p7618
g7
sS'Mackay'
p7619
g48
sS'ocean'
p7620
g7
sS'premiership'
p7621
g4
sS'Economic'
p7622
g7
sS'Kumbartcho'
p7623
g7
sS'Whitsunday'
p7624
g4
sS'Port'
p7625
g48
sS'gdp'
p7626
g7
sS'Bundaberg'
p7627
g4
sS'BC'
p7628
g7
sS'Yasi'
p7629
g7
sS'Stradbroke'
p7630
g4
sS'Pine'
p7631
g7
sS'snow'
p7632
g7
sS'Lions'
p7633
g7
sS'world'
p7634
g18
sS'alternative'
p7635
g7
sS'Territory'
p7636
g4
sS'Torres'
p7637
g48
sS'death'
p7638
g4
sS'flood'
p7639
g7
sS'demographic'
p7640
g7
sS'silver'
p7641
g7
sS'hay'
p7642
g7
sS'squad'
p7643
g7
sS'treatment'
p7644
g7
sS'Artemisia'
p7645
g7
sS'government'
p7646
S'10'
p7647
sS'Phillip'
p7648
g7
sS'Barcaldine'
p7649
g7
sS'q150'
p7650
g7
sS'game'
p7651
g7
sS'John'
p7652
g18
sS'aerospace'
p7653
g7
sS'Rainforest'
p7654
g7
sS'press'
p7655
g7
sS'Kanaka'
p7656
g7
sS'England'
p7657
g7
sS'Whitehaven'
p7658
g7
sS'Colony'
p7659
g7
sS'TransLink'
p7660
g4
sS'Labor'
p7661
g4
sS'Islanders'
p7662
g7
sS'Gulf'
p7663
g4
sS'people'
p7664
g22
sS'West'
p7665
g7
sS'creation'
p7666
g7
sS'Great'
p7667
g22
sS'hail'
p7668
g7
sS'growth'
p7669
g308
sS'export'
p7670
g4
sS'election'
p7671
g4
sS'Bougainville'
p7672
g7
sS'Lamington'
p7673
g7
sS'International'
p7674
g7
sS'employment'
p7675
g7
sS'Mary'
p7676
g7
sS'Channel'
p7677
g7
sS'Possession'
p7678
g7
sS'scale'
p7679
g7
sS'blackbirding'
p7680
g7
sS'lead'
p7681
g7
sS'centre'
p7682
g18
sS'ice'
p7683
g7
sS'Beerwah/Glass'
p7684
g7
sS'convict'
p7685
g7
sS'Population'
p7686
g7
sS'assembly'
p7687
g18
sS'business'
p7688
g7
sS'processing'
p7689
g7
sS'expansion'
p7690
g7
sS'David'
p7691
g7
sS'host'
p7692
g7
sS'br'
p7693
g4
sS'Hornet'
p7694
g7
sS'Weipa'
p7695
g4
sS'Willem'
p7696
g4
sS'Dreamworld'
p7697
g7
sS'wildlife'
p7698
g7
sS'zoo'
p7699
g4
sS'island'
p7700
g7
sS'Transit'
p7701
g7
sS'swimmer'
p7702
g4
sS'range'
p7703
g7
sS'airline'
p7704
g7
sS'act'
p7705
g4
sS'Macintyre'
p7706
g7
sS'road'
p7707
g18
sS'swimming'
p7708
g7
sS'presence'
p7709
g7
sS'whites'
p7710
g7
sS'year'
p7711
g64
sS'weather'
p7712
g7
sS'strip'
p7713
g18
sS'operator'
p7714
g7
sS'Martha'
p7715
g7
sS'drought'
p7716
g7
sS'utility'
p7717
g7
sS'statistics'
p7718
g7
sS'Hermitage'
p7719
g7
sS'Bowen'
p7720
g18
sS'transfer'
p7721
g7
sS'housing'
p7722
g7
sS'Peninsula'
p7723
g4
sS'Aboriginal'
p7724
g18
sS'Toowoomba'
p7725
g7
sS'heritage'
p7726
g7
sS'war'
p7727
g4
sS'head'
p7728
g7
sS'north'
p7729
g10
sS'form'
p7730
g7
sS'outcrop'
p7731
g7
sS'polio'
p7732
g7
sS'Aqua'
p7733
g7
sS'landing'
p7734
g7
sS'peninsula'
p7735
g7
sS'Janszoon'
p7736
g4
sS'authority'
p7737
g7
sS'reef'
p7738
g48
sS'subsidiary'
p7739
g7
sS'Sports'
p7740
g7
sS'GDP'
p7741
g7
sS'rush'
p7742
g7
sS'Office'
p7743
g7
sS'Century'
p7744
g4
sS'House'
p7745
g18
sS'Domestic'
p7746
g7
sS'maximum'
p7747
g4
sS'extermination'
p7748
g7
sS'Airlie'
p7749
g7
sS'record'
p7750
g48
sS'Britain'
p7751
g4
sS'\xc2\xb0'
p7752
g7
sS'Abbot'
p7753
g7
sS'winery'
p7754
g7
sS'Belt'
p7755
g7
sS'Lu\xc3\xads'
p7756
g7
sS'ac'
p7757
g7
sS'Koala'
p7758
g7
sS'recommendation'
p7759
g7
sS'Cross'
p7760
g7
sS'Thursday'
p7761
g7
sS'parliament'
p7762
g4
sS'home'
p7763
g4
sS'Granite'
p7764
g7
sS'ship'
p7765
g7
sS'moonie'
p7766
g7
sS'trip'
p7767
g7
sS'casualty'
p7768
g7
sS'cotton'
p7769
g7
sS'Curtis'
p7770
g7
sS'Barrier'
p7771
g18
sS'variety'
p7772
g7
sS'May'
p7773
g7
sS'sugar'
p7774
g10
sS'Sunshine'
p7775
g308
sS'tip'
p7776
g7
sS'field'
p7777
g7
sS'boom'
p7778
g7
sS'income'
p7779
g7
sS'Gorge'
p7780
g7
sS'cricket'
p7781
g7
sS'area'
p7782
g64
sS'February'
p7783
g7
sS'toad'
p7784
g7
sS'Country'
p7785
g7
sS'oppression'
p7786
g7
sS'variation'
p7787
g7
sS'Melbourne'
p7788
g7
sS'outback'
p7789
g7
sS'Atherton'
p7790
g4
sS'Act'
p7791
g4
sS'Proserpine'
p7792
g7
sS'Gardens'
p7793
g7
sS'South'
p7794
S'19'
p7795
sS'Elizabeth'
p7796
g7
sS'lane'
p7797
g7
sS'land'
p7798
g4
sg2414
g7
sS'Tropics'
p7799
g7
sS'age'
p7800
g7
sS'Executive'
p7801
g4
sS'mid-winter'
p7802
g7
sS'time'
p7803
g64
sS'Gateway'
p7804
g7
ssS'quantum_computer'
p7805
(dp7806
S'USRA'
p7807
g7
sS'stability-decoherence'
p7808
g7
sS'datum'
p7809
g48
sS'Pell'
p7810
g7
sS'microwave'
p7811
g7
sS'computation'
p7812
S'15'
p7813
sS'query'
p7814
g4
sS'integrity'
p7815
g7
sS'formula_10'
p7816
g7
sS'formula_11'
p7817
g7
sS'formula_12'
p7818
g7
sS'amplification'
p7819
g7
sS'formula_14'
p7820
g7
sS'n-qubit'
p7821
g7
sS'formula_17'
p7822
g7
sS'formula_18'
p7823
g7
sS'formula_19'
p7824
g7
sS'similarity'
p7825
g7
sS'environment'
p7826
g7
sS'program'
p7827
g7
sS'device'
p7828
g18
sS'bqp'
p7829
g10
sS'norm'
p7830
g4
sS'digit'
p7831
g4
sS'string'
p7832
g308
sS'advantage'
p7833
g7
sS'choice'
p7834
g7
sS'electron'
p7835
g7
sS'difference'
p7836
g4
sS'condition'
p7837
g7
sS'room'
p7838
g7
sS'level'
p7839
g7
sS'transmission'
p7840
g7
sS'solution'
p7841
g4
sS'try'
p7842
g7
sg1800
g4
sS'Inc'
p7843
g7
sS'pspace'
p7844
g7
sS'team'
p7845
g10
sS'optics'
p7846
g4
sS'challenge'
p7847
g4
sS'application'
p7848
g18
sS'Rey'
p7849
g7
sS'force'
p7850
g7
sS'infancy'
p7851
g7
sS'pulse'
p7852
g7
sS'many-body'
p7853
g7
sS'approximation'
p7854
g7
sS'State'
p7855
g7
sS'cost'
p7856
g7
sS'1qbit'
p7857
g18
sS'pauli-x'
p7858
g4
sS'sum'
p7859
g18
sS'version'
p7860
g4
sS'Prizes'
p7861
g7
sS'coefficient'
p7862
g398
sS'error'
p7863
S'13'
p7864
sS'teleportation'
p7865
g4
sS'understanding'
p7866
g7
sS'Feynman'
p7867
g7
sS'formula_13'
p7868
g7
sS'separation'
p7869
g7
sS'relaxation'
p7870
g7
sS'D-Wave'
p7871
g308
sS'search'
p7872
g10
sS'Intelligence'
p7873
g7
sS'amount'
p7874
g4
sS'spin'
p7875
g18
sS'fourier'
p7876
g7
sS'Technology'
p7877
g4
sS'criticism'
p7878
g7
sS'technique'
p7879
g4
sS'flexibility'
p7880
g7
sS'Wales'
p7881
g7
sS'market'
p7882
g7
sS'use'
p7883
g10
sS'Australia'
p7884
g7
sS'calculation'
p7885
g18
sS'overhead'
p7886
g7
sS'memory'
p7887
g18
sS'formula_9'
p7888
g7
sS'type'
p7889
g7
sS'today'
p7890
g7
sS'October'
p7891
g7
sS'company'
p7892
g48
sS'Adiabatic'
p7893
g7
sS'annealer'
p7894
g7
sS'phone'
p7895
g7
sS'impulse'
p7896
g7
sS'misconception'
p7897
g7
sS'logarithm'
p7898
g18
sS'topic'
p7899
g7
sS'Neumann'
p7900
g7
sg2606
g7
sS'science'
p7901
g7
sS'equation'
p7902
g7
sS'work'
p7903
g4
sS'del'
p7904
g7
sS'root'
p7905
g7
sS'example'
p7906
S'10'
p7907
sS'proof'
p7908
g7
sS'IBM'
p7909
g4
sS'figure'
p7910
g18
sS'process'
p7911
g7
sS'Corporation'
p7912
g7
sS'chip'
p7913
g308
sS'sample'
p7914
g7
sS'collision'
p7915
g7
sS'critic'
p7916
g4
sS'something'
p7917
g7
sS'sense'
p7918
g4
sS'counterpart'
p7919
g4
sS'notation'
p7920
g7
sS'machine'
p7921
g48
sS'anyon'
p7922
g7
sS'answer'
p7923
g48
sS'gate'
p7924
g308
sS'parameter'
p7925
g7
sS'product'
p7926
g4
sS'protection'
p7927
g7
sS'information'
p7928
g18
sS'turing'
p7929
g7
sS'variant'
p7930
g7
sS'lab'
p7931
g7
sS'plane'
p7932
g7
sS'Yale'
p7933
g7
sS'quasi-particle'
p7934
g7
sS'goal'
p7935
g7
sg4143
g18
sS'register'
p7936
g4
sS'RSA'
p7937
g7
sS'element'
p7938
g7
sS'annealing'
p7939
g7
sS'order'
p7940
g7
sS'Technically'
p7941
g7
sS'restriction'
p7942
g7
sS'nanosecond'
p7943
g7
sS'paper'
p7944
g7
sS'nitrogen'
p7945
g7
sS'existence'
p7946
g7
sS'braid'
p7947
g7
sS'group'
p7948
g4
sS'RAM'
p7949
g7
sS'boson'
p7950
g7
sS'platform'
p7951
g7
sS'cusp'
p7952
g7
sS'combination'
p7953
g7
sS'MRI'
p7954
g7
sS'half'
p7955
g7
sS'rotation'
p7956
g4
sS'superset'
p7957
g7
sS'investor'
p7958
g7
sS'day'
p7959
g7
sS'eigenvalue'
p7960
g7
sS'name'
p7961
g7
sS'university'
p7962
g7
sg2439
g10
sS'Wineland'
p7963
g7
sS'magnitude'
p7964
g22
sS'l2'
p7965
g7
sS'trap'
p7966
g7
sS'l1'
p7967
g7
sS'square'
p7968
g4
sS'energy'
p7969
g7
sS'breakthrough'
p7970
g18
sS'measure'
p7971
g7
sS'quantum'
p7972
S'91'
p7973
sS'lithography'
p7974
g7
sS'impurity'
p7975
g7
sS'space'
p7976
g4
sS'Michigan'
p7977
g7
sS'research'
p7978
g18
sS'semiconductor'
p7979
g7
sS'vector'
p7980
g10
sS'size'
p7981
g4
sS'issue'
p7982
g7
sS'theory'
p7983
g10
sS'University'
p7984
S'10'
p7985
sS'possibility'
p7986
g7
sS'difficulty'
p7987
g7
sS'Security'
p7988
g7
sS'care'
p7989
g7
sS'interaction'
p7990
g7
sS'thread'
p7991
g7
sS'September'
p7992
g4
sS'National'
p7993
g7
sS'Nature'
p7994
g7
sS'silicon'
p7995
g7
sS'length'
p7996
g4
sS'NASA'
p7997
g7
sS'place'
p7998
g4
sS'circuit'
p7999
g4
sS'probability'
p8000
S'17'
p8001
sS'researcher'
p8002
S'10'
p8003
sS'Martin'
p8004
g18
sS'number'
p8005
S'17'
p8006
sS'computing'
p8007
S'11'
p8008
sS'engineer'
p8009
g4
sS'Snowden'
p8010
g7
sS'temperature'
p8011
g4
sS'privacy'
p8012
g7
sS'Timeline'
p8013
g7
sS'system'
p8014
S'24'
p8015
sS'attack'
p8016
g7
sg2709
g18
sS'Association'
p8017
g7
sS'tool'
p8018
g7
sS'transistor'
p8019
g7
sS'part'
p8020
g4
sS'Diffie-Hellman'
p8021
g4
sg2037
g10
sS'target'
p8022
g7
sS'tree'
p8023
g7
sS'rate'
p8024
g18
sS'amplitude'
p8025
g4
sS'outcome'
p8026
g4
sS'Information'
p8027
g4
sS'Richard'
p8028
g7
sS'correction'
p8029
g22
sS'BPP'
p8030
g7
sS'manner'
p8031
g4
sS'ket'
p8032
g4
sS'disjoint'
p8033
g7
sS'NAND'
p8034
g7
sS'instance'
p8035
g7
sS'Santa'
p8036
g7
sS'Jones'
p8037
g7
sS'aes-256'
p8038
g7
sS'November'
p8039
g4
sS'cipher'
p8040
g4
sS'phase'
p8041
g7
sS'Iowa'
p8042
g7
sS'class'
p8043
g48
sS'Google'
p8044
g4
sS'Delft'
p8045
g7
sS'principle'
p8046
g7
sS'physics'
p8047
g4
sS'fact'
p8048
g10
sS'quantity'
p8049
g7
sS'phenomenon'
p8050
g7
sS'Agency'
p8051
g7
sS'speedup'
p8052
g22
sS'Research'
p8053
g4
sS'relation'
p8054
g7
sS'Systems'
p8055
g4
sS'ratio'
p8056
g7
sS'spite'
p8057
g7
sS'implementation'
p8058
g4
sS'Yuri'
p8059
g7
sS'factor'
p8060
g18
sS'invocation'
p8061
g7
sS'Manin'
p8062
g7
sS'cryptography'
p8063
g4
sS'means'
p8064
g7
sS'report'
p8065
g7
sS'shaping'
p8066
g7
sS'm-theory'
p8067
g7
sS'evolution'
p8068
g7
sS'resource'
p8069
g7
sS'aluminum'
p8070
g7
sg2130
g48
sS'factorization'
p8071
g10
sS'J.'
p8072
g7
sS'scientist'
p8073
g4
sS'terabyte'
p8074
g7
sS'architecture'
p8075
g7
sS'kernel'
p8076
g7
sS'requirement'
p8077
g7
sS'set'
p8078
g4
sS'thesis'
p8079
g4
sS'observer'
p8080
g7
sS'maximum'
p8081
g7
sS'computer'
p8082
S'71'
p8083
sS'result'
p8084
g4
sS'subject'
p8085
g7
sS'DiVincenzo'
p8086
g7
sS'capacity'
p8087
g7
sS'state'
p8088
S'37'
p8089
sS'progress'
p8090
g7
sS'approach'
p8091
g10
sS'email'
p8092
g7
sS'ability'
p8093
g18
sS'importance'
p8094
g7
sS'U.S.'
p8095
g7
sS'scalability'
p8096
g7
sS'key'
p8097
g18
sS'#p'
p8098
g4
sS'P.'
p8099
g7
sS'problem'
p8100
S'35'
p8101
sg99
g18
sS'Computer'
p8102
g7
sS'logic'
p8103
g4
sS'eth'
p8104
g7
sS'timescale'
p8105
g7
sS'cryptosystem'
p8106
g18
sS'Artificial'
p8107
g7
sS'Nobel'
p8108
g7
sS'Sciences'
p8109
g7
sS'learning'
p8110
g7
sS'polynomial'
p8111
g7
sS'USC'
p8112
g48
sS'configuration'
p8113
g7
sS'lattice'
p8114
g18
sS'encryption'
p8115
g7
sS'Processing'
p8116
g7
sS'Southern'
p8117
g4
sS'California'
p8118
g18
sS'maintenance'
p8119
g7
sS'direction'
p8120
g4
sS'Center'
p8121
g4
sS'photon'
p8122
g7
sS'aes-128'
p8123
g7
sS'Barbara'
p8124
g7
sS'case'
p8125
g10
sS'z\xc3\xbcrich'
p8126
g7
sS'cracker'
p8127
g7
sS'value'
p8128
g4
sg543
g7
sS'aim'
p8129
g7
sS'complexity'
p8130
g18
sS'Edward'
p8131
g7
sS'Church'
p8132
g4
sS'Quantum'
p8133
S'13'
p8134
sS'property'
p8135
g18
sS'loop'
p8136
g7
sS'unitary'
p8137
g4
sS'Elliptic'
p8138
g7
sS'need'
p8139
g7
sS'spin-1'
p8140
g7
sS'technology'
p8141
g7
sS'NSA'
p8142
g4
sS'radiation'
p8143
g7
sS'complex'
p8144
g48
sS'document'
p8145
g7
sS'development'
p8146
g4
sS'Springer'
p8147
g7
sS'Institute'
p8148
g7
sS'hand'
p8149
g4
sS'ion'
p8150
g7
sS'Grover'
p8151
g308
sS'Bristol'
p8152
g4
sS'entanglement'
p8153
g7
sS'qubit'
p8154
S'31'
p8155
sS'task'
p8156
g4
sS'database'
p8157
g4
sS'formula_21'
p8158
g7
sS'formula_20'
p8159
g7
sS'termination'
p8160
g7
sS'model'
p8161
g10
sS'chemistry'
p8162
g4
sS'dimension'
p8163
g7
sS'subgroup'
p8164
g7
sS'BQP'
p8165
g7
sS'BC'
p8166
g7
sS'laptop'
p8167
g7
sS'gravity'
p8168
g4
sS'integer'
p8169
g398
sS'bit'
p8170
S'13'
p8171
sS'web'
p8172
g7
sS'password'
p8173
g18
sS'candidate'
p8174
g48
sS'vibration'
p8175
g7
sS'contractor'
p8176
g7
sS'source'
p8177
g7
sS'Marina'
p8178
g7
sS'input'
p8179
g4
sS'measurement'
p8180
g10
sS'McEliece'
p8181
g7
sS'background'
p8182
g7
sS'world'
p8183
g48
sS'nanotechnology'
p8184
g7
sS'sampling'
p8185
g4
sS'd-wave'
p8186
g18
sS'Shor'
p8187
g64
sg604
g18
sS'particle'
p8188
g7
sS'Computing'
p8189
g7
sS'bpp'
p8190
g7
sS'mhz'
p8191
g7
sg4476
g7
sS'output'
p8192
g7
sS'security'
p8193
g4
sS'page'
p8194
g7
sS'function'
p8195
g4
sS'sequence'
p8196
g48
sS'DES'
p8197
g7
sS'duration'
p8198
g7
sS'New'
p8199
g7
sS'operation'
p8200
g22
sS'decision'
p8201
g7
sS'speed-up'
p8202
g7
sS'subclass'
p8203
g7
sS'object'
p8204
g7
sS'nmr'
p8205
g4
sS'seconds'
p8206
g4
sS'journal'
p8207
g7
sS'agreement'
p8208
g4
sS'David'
p8209
g4
sS'formula_6'
p8210
g7
sS'formula_7'
p8211
g7
sS'step'
p8212
g7
sS'formula_2'
p8213
g18
sS'formula_1'
p8214
g4
sS'Microsoft'
p8215
g7
sS'formula_8'
p8216
g7
sS'Serge'
p8217
g7
sS'comparison'
p8218
g4
sS'December'
p8219
g7
sS'basis'
p8220
g398
sS'simulation'
p8221
g18
sS'range'
p8222
g7
sS'Turing'
p8223
g7
sS'Japan'
p8224
g7
sS'processor'
p8225
g48
sS'block'
p8226
g4
sS'software'
p8227
g4
sS'Simon'
p8228
g7
sS'Feb'
p8229
g7
sS'bound'
p8230
g7
sS'pair'
p8231
g7
sS'operator'
p8232
g4
sS'log'
p8233
g7
sS'question'
p8234
g7
sS'way'
p8235
g18
sS'Ames'
p8236
g7
sS'manufacture'
p8237
g7
sS'form'
p8238
g7
sS'Science'
p8239
g7
sS'atom'
p8240
g18
sS'Lockheed'
p8241
g18
sS'Von'
p8242
g7
sS'Haroche'
p8243
g7
sS'crystal'
p8244
g7
sS'limit'
p8245
g7
sS'chipset'
p8246
g7
sS'distribution'
p8247
g10
sS'eigenvector'
p8248
g4
sS'ae'
p8249
g7
sS'Space'
p8250
g7
sS'year'
p8251
g18
sS'diamond'
p8252
g7
sS'Vancouver'
p8253
g7
sS'file'
p8254
g7
sS'formulation'
p8255
g7
sS'campus'
p8256
g7
sg567
g7
sS'May'
p8257
g4
sS'storage'
p8258
g7
sS'detail'
p8259
g4
sS'Lab'
p8260
g7
sS'field'
p8261
g7
sS'functionality'
p8262
g7
sS'np'
p8263
g7
sS'February'
p8264
g4
sS'superposition'
p8265
g64
sS'April'
p8266
g4
sS'South'
p8267
g7
sS'matrix'
p8268
g4
sS'building'
p8269
g18
sg2414
g7
sS'algorithm'
p8270
S'45'
p8271
sS'curve'
p8272
g7
sS'ramification'
p8273
g7
sS'time'
p8274
S'26'
p8275
sS'decoherence'
p8276
S'11'
p8277
ssS'queequeg'
p8278
(dp8279
S'chowder'
p8280
g7
sS'flesh'
p8281
g7
sS'fishing'
p8282
g7
sS'battle'
p8283
g7
sS'captain'
p8284
g7
sS'menu'
p8285
g7
sS'father'
p8286
g7
sS'crew'
p8287
g7
sS'book'
p8288
g4
sS'Massachusetts'
p8289
g7
sS'merchant'
p8290
g7
sS'Bedford'
p8291
g18
sS'return'
p8292
g7
sS'food'
p8293
g7
sS'practice'
p8294
g18
sS'admiration'
p8295
g7
sS'world'
p8296
g4
sS'enemy'
p8297
g4
sS'clam'
p8298
g7
sS'meat'
p8299
g7
sS'feast'
p8300
g7
sS'landlord'
p8301
g7
sS'Yojo'
p8302
g7
sS'friendship'
p8303
g7
sS'side'
p8304
g7
sS'signing'
p8305
g7
sS'people'
p8306
g7
sS'society'
p8307
g7
sS'sea'
p8308
g7
sS'year'
p8309
g7
sS'home'
p8310
g4
sS'event'
p8311
g7
sS'voyage'
p8312
g4
sS'whaling'
p8313
g4
sS'profit'
p8314
g7
sS'exchange'
p8315
g7
sS'religion'
p8316
g7
sS'civilization'
p8317
g7
sS'sermon'
p8318
g7
sS'harpooner'
p8319
g4
sS'advice'
p8320
g7
sS'contrast'
p8321
g7
sS'opening'
p8322
g7
sS'importance'
p8323
g7
sS'water'
p8324
g7
sS'Rokovoko'
p8325
g7
sS'marine'
p8326
g7
sS'instant'
p8327
g7
sS'Kokovoko'
p8328
g7
sS'island'
p8329
g10
sS'tomahawk'
p8330
g7
sS'experience'
p8331
g7
sS'silence'
p8332
g4
sS'tribe'
p8333
g7
sS'indigestion'
p8334
g7
sS'presence'
p8335
g7
sS'character'
p8336
g4
sS'period'
p8337
g7
sS'son'
p8338
g7
sS'sympathy'
p8339
g7
sS'harpoon'
p8340
g4
sS'owner'
p8341
g7
sS'boat'
p8342
g7
sS'swimmer'
p8343
g7
sS'whaler'
p8344
g4
sS'Queequeg'
p8345
S'10'
p8346
sS'expedition'
p8347
g7
sS'cannibal'
p8348
g7
sS'insult'
p8349
g7
sS'Melville'
p8350
g7
sS'Herman'
p8351
g7
sS'Moby-Dick'
p8352
g7
sS'cannibalism'
p8353
g7
sS'life'
p8354
g48
sS'narrator'
p8355
g7
sS'form'
p8356
g7
sS'fire'
p8357
g7
sS'300th'
p8358
g7
sS'part'
p8359
g7
sS'case'
p8360
g7
sS'none'
p8361
g7
sS'room'
p8362
g18
sS'Pacific'
p8363
g7
sS'idol'
p8364
g4
sS'friend'
p8365
g7
sS'ferry'
p8366
g7
sS'animism'
p8367
g7
sS'coffin'
p8368
g7
sS'passenger'
p8369
g7
sS'fashion'
p8370
g7
sS'canoe'
p8371
g7
sS'Father'
p8372
g7
sS'shame'
p8373
g7
sS'inn'
p8374
g7
sS'New'
p8375
g18
sS'ship'
p8376
g4
sS'native'
p8377
g7
sS'money-tight'
p8378
g7
sS'author'
p8379
g7
sS'Nantucket'
p8380
g4
sS'port'
p8381
g48
sS'other'
p8382
g7
sS'role'
p8383
g7
sS'Ishmael'
p8384
S'13'
p8385
sS'fever'
p8386
g7
sS'description'
p8387
g7
sS'dive'
p8388
g7
sS'spot'
p8389
g7
sS'diet'
p8390
g7
sS'Ocean'
p8391
g7
sS'curiosity'
p8392
g7
sS'end'
p8393
g4
sS'South'
p8394
g7
sS'man'
p8395
g7
sS'fasting'
p8396
g7
sS'Mapple'
p8397
g7
sS'Ramadan'
p8398
g7
sS'chief'
p8399
g4
sS'Pequod'
p8400
g18
sS'time'
p8401
g18
ssS'quantum_harmonic_oscillator'
p8402
(dp8403
S'chain'
p8404
g4
sS'essence'
p8405
g7
sS'gravity'
p8406
g7
sS'relation'
p8407
g48
sS'range'
p8408
g7
sS'formulum'
p8409
g4
sS'ground'
p8410
g22
sS'Heisenberg'
p8411
g7
sS'dimensionality'
p8412
g7
sS'group'
p8413
g10
sS'probability'
p8414
g4
sS'density'
p8415
g4
sS'ln'
p8416
g7
sS'technique'
p8417
g7
sS'vicinity'
p8418
g7
sS'boson'
p8419
g7
sS'\xcf\x80'
p8420
g7
sS'wavevector'
p8421
g7
sS'lattice'
p8422
g22
sS'treatment'
p8423
g7
sS'factor'
p8424
g7
sS'eigenstate'
p8425
S'10'
p8426
sS'momentum'
p8427
g48
sS'equilibrium'
p8428
g18
sS'correspondence'
p8429
g7
sS'Dirac'
p8430
g7
sS'eigenfunction'
p8431
g18
sS'choice'
p8432
g7
sS'application'
p8433
g18
sS'integer'
p8434
g22
sS'difference'
p8435
g7
sS'Schroedinger'
p8436
g7
sS'condition'
p8437
g4
sS'eigenvalue'
p8438
g48
sS'term'
p8439
g48
sS'particle'
p8440
S'15'
p8441
sS'Laguerre'
p8442
g18
sS'level'
p8443
g64
sS'solution'
p8444
g64
sS'yield'
p8445
g7
sg1800
g4
sS'vector'
p8446
g18
sS'trap'
p8447
g7
sS'section'
p8448
g18
sg487
g18
sS'Paul'
p8449
g7
sg4274
g18
sS'degeneracy'
p8450
g10
sS'kernel'
p8451
g7
sS'set'
p8452
g48
sS'periodicity'
p8453
g7
sS'map'
p8454
g7
sS'spring'
p8455
g7
sS'energy'
p8456
S'49'
p8457
sS'creation'
p8458
g4
sS'packet'
p8459
g7
sS'operator'
p8460
S'24'
p8461
sS'result'
p8462
g18
sS'quantum'
p8463
S'23'
p8464
sS'wavelength'
p8465
g4
sS'analog'
p8466
g7
sS'degree'
p8467
g7
sS'scale'
p8468
g18
sS'matrix'
p8469
g7
sS'bottom'
p8470
g7
sS'sum'
p8471
g4
sS'state'
p8472
S'15'
p8473
sS'Hamilton'
p8474
g7
sS'example'
p8475
g48
sS'boundary'
p8476
g4
sS'approach'
p8477
g7
sS'method'
p8478
g10
sS'3d'
p8479
g7
sS'\xe2\x9f\xa9'
p8480
g308
sS'theory'
p8481
g18
sS'power'
p8482
g7
sS'confusion'
p8483
g7
sS'notion'
p8484
g7
sS'spacing'
p8485
g7
sS'formula_6'
p8486
g7
sS'reason'
p8487
g18
sS'formula_5'
p8488
g7
sS'separation'
p8489
g4
sS'article'
p8490
g18
sS'configuration'
p8491
g7
sS'implication'
p8492
g7
sS'box'
p8493
g7
sS'comparison'
p8494
g7
sg2709
g7
sS'constraint'
p8495
g4
sS'uncertainty'
p8496
g4
sS'space'
p8497
g308
sS'quantization'
p8498
g18
sS'+1'
p8499
g7
sS'neighbor'
p8500
g7
sS'variance'
p8501
g7
sg108
g48
sS'fourier'
p8502
g48
sS'eigen-number'
p8503
g7
sS'origin'
p8504
g7
sS'symmetry'
p8505
g7
sS'point'
p8506
g18
sS'wave'
p8507
g22
sS'dimension'
p8508
S'12'
p8509
sS'number'
p8510
g64
sS'\xe2\x84\x8f\xcf\x89'
p8511
g7
sS'variable'
p8512
g18
sS'polynomial'
p8513
g22
sS'unit'
p8514
g18
sS'ket'
p8515
g4
sS'adjoint'
p8516
g4
sS'system'
p8517
g398
sS'custom'
p8518
g7
sS'way'
p8519
g7
sS'length'
p8520
g4
sS'function'
p8521
g7
sS'field'
p8522
g48
sS'form'
p8523
g18
sS'Hamiltonian'
p8524
g10
sS'photon'
p8525
g7
sS'problem'
p8526
g48
sS'Bohr'
p8527
g7
sS'hn'
p8528
g7
sS'atom'
p8529
g64
sS'coupling'
p8530
g7
sS'case'
p8531
S'10'
p8532
sS'distance'
p8533
g7
sS'Wigner'
p8534
g4
sS'accordance'
p8535
g4
sS'equation'
p8536
g18
sS'formula_40'
p8537
g7
sS'formula_47'
p8538
g7
sS'formula_46'
p8539
g7
sS'value'
p8540
g48
sg543
S'54'
p8541
sS'annihilation'
p8542
g4
sS'mechanic'
p8543
g4
sS'Hermite'
p8544
g18
sS'Quantum'
p8545
g7
sS'distribution'
p8546
g4
sS'property'
p8547
g10
sS'trigonometry'
p8548
g7
sS'procedure'
p8549
g4
sS'figure'
p8550
g7
sS'lowering'
p8551
g48
sS'calculation'
p8552
g7
sS'conjugate'
p8553
g7
sS'spectrum'
p8554
g4
sS'mode'
p8555
g18
sS'minimum'
p8556
g7
sS'clutter'
p8557
g7
sS'formulation'
p8558
g7
sS'formalism'
p8559
g7
sS'end'
p8560
g7
sS'nn'
p8561
g7
sS'make'
p8562
g7
sS'formula_35'
p8563
g7
sS'feature'
p8564
g7
sS'Mehler'
p8565
g7
sS'potential'
p8566
g48
sS'analogy'
p8567
g7
sS'simplicity'
p8568
g7
sS'multiple'
p8569
g7
sS'Third'
p8570
g7
sS'ladder'
p8571
g22
sS'object'
p8572
g7
sS'commutator'
p8573
g7
sS'U'
p8574
g18
sS'position'
p8575
S'11'
p8576
sS'phase'
p8577
g4
sS'N'
p8578
g18
sS'normalization'
p8579
g7
sS'commutation'
p8580
g48
sS'oscillator'
p8581
S'24'
p8582
sS'quasiprobability'
p8583
g4
sS'observation'
p8584
g7
sS'amount'
p8585
g7
sS'partition'
p8586
g4
sS'nondimensionalization'
p8587
g7
sS'element'
p8588
g7
sS'phonon'
p8589
g10
sS'mass'
p8590
g308
sS'principle'
p8591
g4
sS'Schr\xc3\xb6dinger'
p8592
g7
sS'time'
p8593
g18
sS'coordinate'
p8594
g4
sS'representation'
p8595
g22
sS'model'
p8596
g48
sS'order'
p8597
g7
sS'fact'
p8598
g7
sS'quantity'
p8599
g18
ss.