(dp0
S'xylem'
p1
(dp2
S'xylem'
p3
S'40'
p4
sS'chain'
p5
S'2'
p6
sS'resistance'
p7
g6
sS'morphology'
p8
S'1'
p9
sS'hole'
p10
g9
sS'embolism'
p11
S'7'
p12
sS'parenchyma'
p13
g9
sS'passage'
p14
g9
sS'environment'
p15
g9
sS'premium'
p16
g9
sS'advantage'
p17
g6
sS'Henry'
p18
g9
sS'condition'
p19
g9
sS'level'
p20
S'6'
p21
sS'mesophyll'
p22
g9
sS'Gnetum'
p23
g9
sS'solution'
p24
g6
sS'travels'
p25
g9
sS'force'
p26
S'8'
p27
sS'occurrence'
p28
g6
sS'rate'
p29
g6
sS'design'
p30
g9
sS'Metaxylem'
p31
S'3'
p32
sS'thickness'
p33
g9
sS'cell'
p34
S'32'
p35
sS'fossil'
p36
g6
sS'method'
p37
g9
sS'movement'
p38
g6
sS'niche'
p39
g9
sS'exchange'
p40
g32
sS'water'
p41
S'84'
p42
sS'Arthur'
p43
g9
sS'perforation'
p44
g9
sS'colonization'
p45
g9
sS'change'
p46
g9
sS'Xylem'
p47
g27
sS'precursor'
p48
g9
sS'study'
p49
g9
sS'amount'
p50
g6
sS'action'
p51
S'4'
p52
sS'diameter'
p53
S'9'
p54
sS'Cooksonia'
p55
g6
sS'unit'
p56
g9
sS'use'
p57
g32
sS'tracheophyte'
p58
g9
sS'm.'
p59
g9
sS'doubt'
p60
g9
sS'type'
p61
S'5'
p62
sS'today'
p63
g6
sS'horsetail'
p64
g9
sS'trait'
p65
g6
sS'suction'
p66
g9
sS'hold'
p67
g9
sS'none'
p68
g9
sS'word'
p69
g6
sS'donut'
p70
g9
sS'rim'
p71
g9
sS'Carboniferous'
p72
g6
sS'root'
p73
S'12'
p74
sS'example'
p75
g9
sS'history'
p76
g9
sS'control'
p77
g9
sS'process'
p78
g21
sS'gymnosperm'
p79
g9
sS'something'
p80
g9
sS'hydrogen'
p81
g32
sS'axis'
p82
g9
sS'end'
p83
g12
sS'winter'
p84
g9
sS'damage'
p85
g6
sS'cavitation'
p86
g27
sS'arrangement'
p87
g9
sS'chemical'
p88
g6
sS'Protoxylem'
p89
g9
sS'Dixon-Joly'
p90
g9
sS'tension'
p91
g12
sS'plant'
p92
S'51'
p93
sS'homoiohydry'
p94
g9
sS'law'
p95
g9
sS'parallel'
p96
g9
sS'elongation'
p97
g9
sS'element'
p98
S'11'
p99
sS'interpretation'
p100
g9
sS'Trochodendraceae'
p101
g9
sS'Cavitation'
p102
g9
sS'\xce\xbe\xcf\x8d\xce\xbb\xce\xbf\xce\xbd'
p103
g9
sS'scientist'
p104
g9
sS'Dixon'
p105
g6
sS'tendency'
p106
g9
sS'group'
p107
g52
sS'attraction'
p108
g9
sS'absence'
p109
g9
sS'strand'
p110
g32
sS'uptake'
p111
g9
sS'combination'
p112
g9
sS'band'
p113
g9
sS'compound'
p114
g9
sS'Specialized'
p115
g9
sS'day'
p116
g9
sS'lineage'
p117
g6
sS'term'
p118
g6
sS'oxygen'
p119
g9
sS'rock'
p120
g9
sS'side'
p121
g9
sS'bond'
p122
g32
sS'generation'
p123
g9
sS'series'
p124
g9
sS'energy'
p125
g9
sS'conifer'
p126
g9
sS'phloem'
p127
g9
sS'measurement'
p128
g52
sS'extract'
p129
g9
sS'inter-cell'
p130
g9
sS'category'
p131
g9
sS'space'
p132
g9
sS'gradient'
p133
g32
sS'research'
p134
g6
sS'increase'
p135
g9
sS'adhesion'
p136
g6
sS'cause'
p137
g6
sS'xylon'
p138
g9
sS'independence'
p139
g9
sS'fiber'
p140
g6
sS'theory'
p141
g27
sS'gnetophyte'
p142
g9
sS'reason'
p143
g9
sS'transition'
p144
g9
sS'\xce\xbcm'
p145
g6
sS'turn'
p146
g9
sS'length'
p147
g6
sS'hydroid'
p148
g32
sS'origin'
p149
g9
sS'number'
p150
g6
sS'Cronquist'
p151
g6
sS'Silu-Devonian'
p152
g9
sS'ring'
p153
g6
sS'size'
p154
g21
sS'sheet'
p155
g9
sS'service'
p156
g9
sS'width'
p157
g9
sS'top'
p158
g9
sS'system'
p159
g62
sS'regulation'
p160
g9
sS'moisture'
p161
g6
sS'pathogen'
p162
g9
sS'conduit'
p163
g32
sS'lot'
p164
g6
sS'sclerenchyma'
p165
g9
sS'vine'
p166
g9
sS'desiccation'
p167
g6
sS'part'
p168
g52
sS'diffusion'
p169
g32
sS'distance'
p170
g9
sS'tree'
p171
g6
sS'photosynthesis'
p172
g32
sS'stickiness'
p173
g9
sS'need'
p174
g9
sS'Main'
p175
g9
sS'contents'
p176
g9
sS'Development'
p177
g9
sS'hornwort'
p178
g6
sS'Horneophyton'
p179
g9
sS'endodermi'
p180
g32
sS'gravity'
p181
g6
sS'mechanism'
p182
S'11'
p183
sS'instance'
p184
g6
sS'potential'
p185
g52
sS'channel'
p186
g6
sS'trace'
p187
g9
sS'price'
p188
g9
sS'molecule'
p189
g27
sS'poikilohydry'
p190
g9
sS'moss'
p191
g9
sS'mineral'
p192
g9
sS'torus'
p193
g6
sS'flow'
p194
g27
sS'pipe'
p195
g9
sS'pretracheophyte'
p196
g9
sS'macrofossil'
p197
g9
sS'atmosphere'
p198
g6
sS'recess'
p199
g9
sS'bomb'
p200
g9
sS'phenomenon'
p201
g9
sS'probe'
p202
g9
sS'evaporation'
p203
g6
sS'ground'
p204
g9
sS'maturation'
p205
g9
sS'surroundings'
p206
g9
sS'wood'
p207
g52
sS'helix'
p208
g9
sS'factor'
p209
g9
sS'equilibrium'
p210
g6
sS'freezing'
p211
g9
sS'fluid'
p212
g9
sS'meter'
p213
g9
sS'stoma'
p214
g52
sS'gel'
p215
g9
sS'tracheid'
p216
S'28'
p217
sS'evolution'
p218
g6
sS'bar'
p219
g9
sS'organ'
p220
g9
sS'shape'
p221
g9
sS'transpiration'
p222
g21
sS'innards'
p223
g9
sS'result'
p224
g6
sS'John'
p225
g9
sS'conductivity'
p226
g6
sS'pattern'
p227
g52
sS'nature'
p228
g9
sS'state'
p229
g6
sS'askenasy'
p230
g9
sS'membrane'
p231
g9
sS'scalariform'
p232
g9
sS'selaginellale'
p233
g9
sS'metaxylem'
p234
g54
sS'Maples'
p235
g9
sS'ability'
p236
g6
sS'opening'
p237
g9
sS'importance'
p238
g9
sS'zosterophyllophyte'
p239
g9
sS'efficiency'
p240
g9
sS'hypothesis'
p241
g9
sS'extent'
p242
g9
sS'configuration'
p243
g9
sS'acquisition'
p244
g9
sS'genus'
p245
g9
sS'Gnetophyta'
p246
g9
sS'cm'
p247
g9
sS'supply'
p248
g6
sS'wall'
p249
S'18'
p250
sS'period'
p251
g9
sS'height'
p252
g6
sS'vessel'
p253
S'27'
p254
sS'Winteraceae'
p255
g9
sS'implosion'
p256
g9
sS'life'
p257
g6
sS'above-soil'
p258
g9
sS'angiosperm'
p259
g27
sS'worker'
p260
g9
sS'procambium'
p261
g9
sS'bulk'
p262
g9
sS'demand'
p263
g9
sS'appearance'
p264
g6
sS'air'
p265
g21
sS'Joly'
p266
g9
sS'layer'
p267
g6
sS'century'
p268
g9
sS'soil'
p269
g52
sS'Horatio'
p270
g9
sS'site'
p271
g9
sS'surface'
p272
g54
sS'middle'
p273
g9
sS'tissue'
p274
g62
sS'technology'
p275
g9
sS'capture'
p276
g9
sS'member'
p277
g32
sS'concavity'
p278
g9
sS'development'
p279
g32
sS'driver'
p280
g9
sS'ion'
p281
g6
sS'cycle'
p282
g9
sS'cambium'
p283
g9
sS'Silurian'
p284
g6
sS'position'
p285
g9
sS'reward'
p286
g9
sS'stem'
p287
g6
sS'Amborellaceae'
p288
g9
sS'Cycadophyta'
p289
g9
sS'dehydration'
p290
g9
sS'death'
p291
g9
sS'density'
p292
g9
sS'onward'
p293
g9
sS'improvement'
p294
g9
sS'thickening'
p295
g6
sS'spread'
p296
g9
sS'blob'
p297
g6
sS'input'
p298
g9
sS'Aglaophyton'
p299
g9
sS'protoxylem'
p300
S'12'
p301
sS'loss'
p302
g9
sS'success'
p303
g9
sS'deal'
p304
g6
sS'spring'
p305
g6
sS'growth'
p306
g32
sS'transport'
p307
S'24'
p308
sS'leaf'
p309
g12
sS'Permian'
p310
g9
sS'tube'
p311
g21
sS'innovation'
p312
g9
sS'ornamentation'
p313
g9
sS'power'
p314
g9
sS'meniscus'
p315
g9
sS'pressure'
p316
S'14'
p317
sS'stage'
p318
g9
sS'constraint'
p319
g9
sS'column'
p320
g6
sS'range'
p321
g9
sS'endarch'
p322
g9
sS'upward'
p323
g62
sS'presence'
p324
g9
sS'spreading'
p325
g9
sS'fern'
p326
g9
sS'Tetracentraceae'
p327
g9
sS'fabric'
p328
g9
sS'area'
p329
g32
sS'cohesion-tension'
p330
g62
sS'support'
p331
g9
sS'cuticle'
p332
g32
sS'start'
p333
g9
sS'way'
p334
g9
sS'bubble'
p335
g62
sS'function'
p336
g32
sS'form'
p337
g21
sS'frost'
p338
g9
sS'atom'
p339
g6
sS'pull'
p340
g62
sS'Transpiration'
p341
g6
sS'default'
p342
g9
sS'maximum'
p343
g9
sS'Murray'
p344
g9
sS'maturity'
p345
g9
sS'limit'
p346
g32
sS'problem'
p347
g9
sS'year'
p348
g9
sS'evidence'
p349
g9
sS'pit'
p350
g62
sS'centrarch'
p351
g9
sS'film'
p352
g6
sS'%'
p353
g9
sS'objection'
p354
g9
sS'oak'
p355
g9
sS'rubber'
p356
g9
sS'role'
p357
g6
sS'branch'
p358
g9
sS'mesarch'
p359
g9
sS'exarch'
p360
g9
sS'gas'
p361
g52
sS'bundle'
p362
g32
sS'improvisation'
p363
g9
sS'structure'
p364
g54
sS'land'
p365
g9
sS'Ginkgophyta'
p366
g9
sS'rule'
p367
g9
sS'cohesion'
p368
g6
sS'fact'
p369
g9
sS'time'
p370
g12
sS'nutrient'
p371
g6
ssS'xenopus'
p372
(dp373
S'breadth'
p374
g9
sS'molecule'
p375
g32
sS'reservoir'
p376
g9
sS'cytosol'
p377
g9
sS'insight'
p378
g21
sS'cuti'
p379
g9
sS'knockdown'
p380
g32
sS'damage'
p381
g6
sS'Chemical'
p382
g9
sS'aspect'
p383
g9
sS'skin'
p384
g6
sS'spindle'
p385
g9
sS'research'
p386
g12
sS'pycr1'
p387
g9
sS'homeostasis'
p388
g9
sS'impact'
p389
g9
sS'reassembly'
p390
g9
sS'oligo'
p391
g9
sS'feeding'
p392
g9
sS'system'
p393
g21
sS'xenopus'
p394
S'64'
p395
sS'microtubule'
p396
g9
sS'technique'
p397
g9
sS'kinase'
p398
g9
sS'environment'
p399
g9
sS'enzyme'
p400
g6
sS'complex'
p401
g6
sS'study'
p402
S'25'
p403
sS'York'
p404
g9
sS'tgf-beta'
p405
g6
sS'factor'
p406
g9
sS'role'
p407
g21
sS'inhibitor'
p408
g6
sS'degeneration'
p409
g9
sS'division'
p410
g32
sS'chromatin'
p411
g6
sS'assay'
p412
g6
sS'risk'
p413
g6
sS'combination'
p414
g9
sS'dna'
p415
g12
sS'apoptosis'
p416
g6
sS'activation'
p417
g6
sS'material'
p418
g9
sS'injection'
p419
g6
sS'predator'
p420
g9
sS'degradation'
p421
g9
sS'break'
p422
g9
sS'test'
p423
g9
sS'transduction'
p424
g52
sS'nbs1'
p425
g9
sS'breast'
p426
g9
sS'compound'
p427
g6
sS'foot'
p428
g6
sS'breakage'
p429
g9
sS'locus'
p430
g9
sS'twilight'
p431
g9
sS'day'
p432
g9
sS'ataxia'
p433
g6
sS'anemia'
p434
g9
sS'superfamily'
p435
g9
sS'progression'
p436
g9
sS'organ'
p437
g9
sS'transmission'
p438
g9
sS'approach'
p439
g6
sS'transgenic'
p440
g9
sS'cell'
p441
S'12'
p442
sS'summary'
p443
g9
sS'network'
p444
g9
sS'tension'
p445
g9
sS'mode'
p446
g9
sS'mrna'
p447
g6
sS'activity'
p448
g32
sS'trypanosome'
p449
g9
sS'instability'
p450
g9
sS'river'
p451
g9
sS'disorder'
p452
g6
sS'signal'
p453
g52
sS'</ref>'
p454
g9
sS'upward'
p455
g9
sS'transgenesis'
p456
g6
sS'set'
p457
g9
sS'eyelid'
p458
g9
sS'human'
p459
g9
sS'replication'
p460
g32
sS'map'
p461
g9
sS'appearance'
p462
g9
sS'gfp'
p463
g9
sS'testing'
p464
g9
sS'biology'
p465
g27
sS'vessel'
p466
g9
sS'growth'
p467
g6
sS'laevi'
p468
g32
sS'cloning'
p469
g9
sS'year'
p470
g52
sS'laboratory'
p471
g9
sS'extract'
p472
S'17'
p473
sS'event'
p474
g9
sS'leukoencephalopathy'
p475
g9
sS'subject'
p476
g9
sS'wnt/gsk3'
p477
g9
sS'disruptor'
p478
g9
sS'fanc'
p479
g9
sS'webbing'
p480
g9
sS'genetics'
p481
g9
sS'Janet'
p482
g9
sS'lamin'
p483
g9
sS'claw'
p484
g9
sS'function'
p485
g12
sS'pattern'
p486
g9
sS'progeroid'
p487
g9
sS'long-qt'
p488
g9
sS'eardrum'
p489
g9
sS'Behaviour'
p490
g9
sS'toad'
p491
g9
sS'tadpole'
p492
g9
sS'version'
p493
g9
sS'health'
p494
g9
sS'finger'
p495
g6
sS'channel'
p496
g32
sS'mammal'
p497
g9
sS'medicine'
p498
g6
sS'beating'
p499
g6
sS'issue'
p500
g9
sS'method'
p501
g32
sS'contrast'
p502
g9
sS'Nijmegen'
p503
g9
sS'body'
p504
g6
sS'thyroid'
p505
g9
sS'process'
p506
g32
sS'assembly'
p507
g6
sS'ability'
p508
g32
sS'oocyte'
p509
g21
sS'X.'
p510
g32
sS'component'
p511
g9
sS'screen'
p512
g32
sS'haptoglobin'
p513
g9
sS'use'
p514
g52
sS'effect'
p515
g6
sS'water'
p516
g6
sS'therapeutics'
p517
g9
sS'hypothesis'
p518
g9
sS'oligonucleotide'
p519
g9
sS'Gk.'
p520
g9
sS'eye'
p521
g6
sS'Times'
p522
g6
sS'Egg'
p523
g9
sS'physiology'
p524
g9
sS'\xce\xbe\xce\xb5\xce\xbd\xce\xbf\xcf\x82'
p525
g9
sS'advance'
p526
g9
sS'oviduct'
p527
g9
sS'crosslink'
p528
g9
sS'Catastrophic'
p529
g9
sS'region'
p530
g6
sS'amount'
p531
g9
sS'embryo'
p532
S'18'
p533
sS'atr'
p534
g6
sS'double-strand'
p535
g9
sS'action'
p536
g6
sS'toxicology'
p537
g9
sS'tongue'
p538
g6
sS'genus'
p539
g32
sS'expression'
p540
g62
sS'destruction'
p541
g9
sS'interferon'
p542
g9
sS'repair'
p543
g6
sS'cancer'
p544
g52
sS'color'
p545
g9
sS'deafness'
p546
g9
sS'ATM'
p547
g9
sS'lake'
p548
g9
sS'pathway'
p549
g62
sS'variety'
p550
g9
sS'ran'
p551
g6
sS'mitosis'
p552
g32
sS'promise'
p553
g9
sS'female'
p554
g9
sS'transporter'
p555
g9
sS'limb'
p556
g9
sS'egg'
p557
g54
sS'laxa'
p558
g9
sS'xeno'
p559
g9
sS'genome'
p560
g6
sS'cycling'
p561
g9
sS'swimmer'
p562
g9
sS'syndrome'
p563
g32
sS'top'
p564
g9
sS'sequence'
p565
g6
sS'morphogenesis'
p566
g6
sS'gtpase'
p567
g6
sS'frog'
p568
g54
sS'anuran'
p569
g9
sS'sac'
p570
g9
sS'regulation'
p571
g9
sS'interest'
p572
g9
sS'neovascularization'
p573
g9
sS'compartment'
p574
g9
sS'Physiology'
p575
g9
sS'rangtpase'
p576
g9
sS'toe'
p577
g6
sS'brca1'
p578
g9
sS'interphase'
p579
g32
sS'head'
p580
g9
sS'mutation'
p581
g32
sS'relationship'
p582
g9
sS'recql4'
p583
g9
sS'Science'
p584
g9
sS'rothmund-thomson'
p585
g9
sS'envelope'
p586
g6
sS'fore'
p587
g9
sS'disruption'
p588
g9
sS'transaction'
p589
g9
sS'link'
p590
g6
sS'investigation'
p591
g6
sS'wnt'
p592
g32
sS'line'
p593
g9
sS'origin'
p594
g9
sS'ubiquitination'
p595
g9
sS'sound'
p596
g9
sS'b'
p597
g9
sS'target'
p598
g9
sS'hour'
p599
g9
sS'epidermis'
p600
g9
sS'characteristic'
p601
g9
sS'Epilepsy'
p602
g9
sS'Africa'
p603
g9
sS'bed'
p604
g9
sS'ion'
p605
g9
sS'male'
p606
g9
sS'example'
p607
g62
sS'transport'
p608
g32
sS'result'
p609
g9
sS'control'
p610
g9
sS'fork'
p611
g9
sS'\xcf\x80\xce\xbf\xcf\x85\xcf\x82'
p612
g9
sS'mucus'
p613
g9
sS'premier'
p614
g9
sS'mcm'
p615
g9
sS'agent'
p616
g9
sS'engineering'
p617
g9
sS'tissue'
p618
g32
sS'Suriname'
p619
g9
sS'New'
p620
g9
sS'scavenger'
p621
g9
sS'protein'
p622
S'11'
p623
sS'work'
p624
g9
sS'mouse'
p625
g9
sS'modality'
p626
g9
sS'kidney'
p627
g9
sS'kinetochore'
p628
g9
sS'caspase-2'
p629
g9
sS'strength'
p630
g9
sS'tropicali'
p631
g6
sS'advantage'
p632
g9
sS'author'
p633
g9
sS'biochemistry'
p634
g9
sS'transcription'
p635
g6
sS'model'
p636
g27
sS'feature'
p637
g9
sS'mechanism'
p638
g21
sS'species'
p639
g21
sS'chemical'
p640
g6
sS'application'
p641
g9
sS'misexpression'
p642
g9
sS'potential'
p643
g9
sS'pad'
p644
g9
sS'attachment'
p645
g9
sS'animal'
p646
g32
sS'season'
p647
g9
sS'Heasman'
p648
g9
sS'pipa'
p649
g9
sS'Xenbase'
p650
g9
sS'pupil'
p651
g9
sS'thousand'
p652
g9
sS'telangiectasium'
p653
g9
sS'principle'
p654
g9
sS'development'
p655
g6
sS'interstrand'
p656
g9
sS'description'
p657
g9
sS'smad4'
p658
g9
sS'smad7'
p659
g6
sS'tool'
p660
g9
sS'oncogene'
p661
g9
sS'airway'
p662
g9
sS'tractability'
p663
g9
sS'fa'
p664
g9
sS'mouth'
p665
g9
sS'blood'
p666
g6
sS'organism'
p667
g52
sS'vertebrate'
p668
g32
sS'neuroscience'
p669
g9
sS'drought'
p670
g9
sS'gene'
p671
S'15'
p672
sS'response'
p673
g6
sS'hindgut'
p674
g6
sS'arrhythmium'
p675
g9
sS'fanconus'
p676
g9
sS'land'
p677
g9
sS'waist'
p678
g9
sS'database'
p679
g9
sS'c-myc'
p680
g9
sS'light'
p681
g9
sS'floor'
p682
g9
sS'disease'
p683
S'10'
p684
sS'analysis'
p685
g32
sS'swamp'
p686
g9
sS'amphibian'
p687
g9
sS'ciliogenesis'
p688
g9
sS'time'
p689
g9
sS'tropicalis'
p690
g6
sS'morpholino'
p691
g6
sS'mating'
p692
g9
sS'fact'
p693
g9
sS'signaling'
p694
g32
ssS'x_chromosome'
p695
(dp696
S'phenomenon'
p697
g9
sS'similarity'
p698
g9
sS'cornea'
p699
g9
sS'sperm'
p700
g6
sS'shape'
p701
g6
sS'human'
p702
g6
sS'Hermann'
p703
g9
sS'staining'
p704
g9
sS'xq25'
p705
g9
sS'alignment'
p706
g9
sS'homology'
p707
g9
sS'cell'
p708
g27
sS'testis'
p709
g9
sS'feminization'
p710
g9
sS'family'
p711
g9
sS'megalocornea'
p712
g9
sS'father'
p713
g32
sS'researcher'
p714
g6
sS'y-shape'
p715
g9
sS'blob'
p716
g9
sS'role'
p717
g9
sS'degeneration'
p718
g9
sS'combination'
p719
g6
sS'xq21.3-q22'
p720
g9
sS'couple'
p721
g9
sS'material'
p722
g9
sS'fluid'
p723
g9
sS'Erwin'
p724
g9
sS'dapus'
p725
g9
sS'approach'
p726
g9
sS'euchromatin'
p727
g9
sS'microscope'
p728
g32
sS'xy'
p729
g6
sS'arrow'
p730
g9
sS'mammal'
p731
g6
sS'disorder'
p732
g32
sS'side'
p733
g9
sS'barr'
p734
g32
sS'sequence'
p735
g9
sS'fish'
p736
g9
sS'idea'
p737
g9
sS'sex'
p738
g32
sS'marker'
p739
g9
sS'trisomy'
p740
g9
sS'result'
p741
g9
sS'Pyrrhocoris'
p742
g9
sS'naming'
p743
g9
sS'de-functionalizing'
p744
g9
sS'Discovery'
p745
g9
sS'CCD'
p746
g9
sS'bottom'
p747
g9
sS'section'
p748
g9
sS'research'
p749
g6
sS'grandmother'
p750
g9
sS'mutation'
p751
g9
sS'cause'
p752
g9
sS'body'
p753
g32
sS'patient'
p754
g6
sS'ability'
p755
g9
sS'fertilization'
p756
g9
sS'interspecy'
p757
g9
sS'base'
p758
g9
sS'x'
p759
S'37'
p760
sS'xp22'
p761
g9
sS'thumb'
p762
g9
sS'comparison'
p763
g9
sS'descender'
p764
g9
sS'male'
p765
g12
sS'anything'
p766
g9
sS'determining'
p767
g9
sS'region'
p768
g12
sS'tumor'
p769
g9
sS'sry'
p770
g9
sS'xi'
p771
g9
sS'McClung'
p772
g6
sS'letter'
p773
g6
sS'cancer'
p774
g9
sS'Ohno'
p775
g9
sS'image'
p776
g9
sS'number'
p777
g6
sS'xx'
p778
g9
sS'mitosis'
p779
g6
sS'female'
p780
g12
sS'klinefelter'
p781
g9
sS'dna'
p782
g9
sS'Clarence'
p783
g9
sS'area'
p784
g9
sS'x-chromosome'
p785
g6
sS'sex-determination'
p786
g6
sS'system'
p787
g6
sS'camera'
p788
g9
sS'gene'
p789
S'12'
p790
sS'territory'
p791
g9
sS'function'
p792
g9
sS'xxx'
p793
g9
sS'corneal'
p794
g6
sS'XX'
p795
g9
sS'part'
p796
g6
sS'determination'
p797
g6
sS'x0'
p798
g9
sS'copy'
p799
g9
sS'CT'
p800
g9
sS'case'
p801
g9
sS'.3'
p802
g9
sS'work'
p803
g9
sS'property'
p804
g9
sS'Henking'
p805
g9
sS'dystrophy'
p806
g6
sS'jpg'
p807
g9
sS'species'
p808
g6
sS'chromosome'
p809
S'47'
p810
sS'counterpart'
p811
g6
sg353
g9
sS'syndrome'
p812
g52
sS'alphabet'
p813
g9
sS'other'
p814
g6
sS'allosome'
p815
g9
sS'genome'
p816
g6
sS'branch'
p817
g9
sS'Ross'
p818
g9
sS'henking'
p819
g6
sS'testicle'
p820
g9
sS'development'
p821
g9
sS'object'
p822
g9
sS'effect'
p823
g9
sS'accessory'
p824
g9
sS'nucleus'
p825
g6
sS'lyonization'
p826
g9
sS'meiosis'
p827
g9
sS'pair'
p828
g6
sS'x-inactivation'
p829
g6
sS'class'
p830
g9
sS'structure'
p831
g9
sS'building'
p832
g9
sS'abnormality'
p833
g9
sS'sd4hi-unten-crop'
p834
g9
sS'Leipzig'
p835
g9
sS'locust'
p836
g9
sS'disease'
p837
g32
sS'element'
p838
g9
sS'person'
p839
g9
sS'mother'
p840
g32
sS'y'
p841
S'10'
p842
sS'Turner'
p843
g9
sS'egg'
p844
g9
sS'fact'
p845
g9
ssS'xipe_totec'
p846
(dp847
S'totec'
p848
g52
sS'wig'
p849
g9
sS'flayer'
p850
g9
sS'Yucat\xc3\xa1n'
p851
g9
sS'thigh'
p852
g9
sS'gold'
p853
g52
sS'dance'
p854
g9
sS'Indians'
p855
g9
sS'month'
p856
g9
sS'foot'
p857
g9
sS'victim'
p858
g27
sS'skin'
p859
S'22'
p860
sS'earth'
p861
g9
sS'deity'
p862
g21
sS'spilling'
p863
g9
sS'staff'
p864
g9
sS'onset'
p865
g9
sS'death'
p866
g9
sS'March'
p867
g9
sS'Postclassic'
p868
g9
sS'sheaf'
p869
g9
sS'rash'
p870
g9
sS'day'
p871
g12
sS'liberation'
p872
g9
sS'xipe'
p873
g62
sS'Tlaxcaltecs'
p874
g9
sS'humanity'
p875
g9
sS'metalworker'
p876
g6
sS'xipetotec'
p877
g9
sS'town'
p878
g6
sS'casting'
p879
g9
sS'Mesoamerica'
p880
g9
sS'food'
p881
g6
sS'act'
p882
g6
sS'votary'
p883
g9
sS'game'
p884
g6
sS'quail-feather'
p885
g9
sS'snake'
p886
g9
sS'Arrow'
p887
g9
sS'front'
p888
g9
sS'silver'
p889
g9
sS'method'
p890
g32
sS'name'
p891
g32
sS'rebirth'
p892
g9
sS'Tlatlauhca'
p893
g9
sS'jaguar'
p894
g9
sS'Gold'
p895
g9
sS'gift'
p896
g9
sS'feast'
p897
g9
sS'Gulf'
p898
g6
sS'Tenochtitlan'
p899
g6
sS'chamber'
p900
g9
sS'priest'
p901
g32
sS'knife'
p902
g9
sS'Night'
p903
g9
sS'clay'
p904
g9
sS'alms'
p905
g6
sS'side'
p906
g6
sS'heel'
p907
g9
sS'body'
p908
g6
sS'blade'
p909
g6
sS'equinox'
p910
g9
sS'ailment'
p911
g9
sS'jewellery'
p912
g9
sS'Neteotquiliztli'
p913
g9
sS'putrefaction'
p914
g9
sS'macuahuitl'
p915
g9
sS'frame'
p916
g9
sS'crown'
p917
g9
sS'crop'
p918
g9
sS'satrap'
p919
g9
sS'hair'
p920
g9
sS'captive'
p921
g52
sS'growth'
p922
g9
sS'result'
p923
g6
sS'band'
p924
g32
sS'flaying'
p925
g9
sS'Xipe'
p926
S'19'
p927
sS'New'
p928
g9
sS'agriculture'
p929
g9
sS'Red'
p930
g9
sS'impersonation'
p931
g9
sS'veneration'
p932
g9
sS'container'
p933
g32
sS'combat'
p934
g9
sS'house'
p935
g32
sS'god'
p936
S'12'
p937
sS'ornament'
p938
g9
sS'Camaxtli'
p939
g9
sS'religion'
p940
g9
sS'version'
p941
g9
sS'inflammation'
p942
g9
sS'obsidian'
p943
g9
sS'attire'
p944
g9
sS'stench'
p945
g9
sS'worship'
p946
g9
sS'Tlacaxipeoaliztli'
p947
g9
sS'exercise'
p948
g9
sS'nose'
p949
g9
sS'cord'
p950
g9
sS'eagle'
p951
g9
sS'arrow'
p952
g6
sS'leg'
p953
g9
sS'equivalent'
p954
g9
sS'rock'
p955
g9
sS'sandal'
p956
g6
sS'group'
p957
g6
sS'germination'
p958
g9
sS'worshipper'
p959
g6
sS'Totec'
p960
S'21'
p961
sS'temple'
p962
g32
sS'goddess'
p963
g9
sS'piece'
p964
g9
sS'corn'
p965
g6
sS'sculpture'
p966
g6
sS'ritual'
p967
g6
sS'shield'
p968
g6
sS'soldier'
p969
g9
sS'place'
p970
g9
sS'bone'
p971
g9
sS'Mirror'
p972
g9
sS'wrist'
p973
g9
sS'emperor'
p974
g9
sS'mouth'
p975
g6
sS'blood'
p976
g32
sS'origin'
p977
g9
sS'tlauauaniliztlus'
p978
g9
sS'love'
p979
g9
sS'heart'
p980
g52
sS'ground'
p981
g32
sS'conquest'
p982
g32
sS'period'
p983
g6
sS'fertility'
p984
g6
sS'drinker'
p985
g9
sS'Tlacaxipehualiztli'
p986
g32
sS'Temple'
p987
g9
sS'red'
p988
g9
sS'standing'
p989
g9
sS'youalahuan'
p990
g9
sS'Tlatlauhqui'
p991
g9
sS'eye'
p992
g32
sS'patron'
p993
g9
sS'renewal'
p994
g6
sS'festival'
p995
g54
sS'people'
p996
g9
sS'Coast'
p997
g6
sS'Peninsula'
p998
g9
sS'way'
p999
g9
sS'spring'
p1000
g6
sS'ankle'
p1001
g9
sS'Smoking'
p1002
g9
sS'yellowish-gray'
p1003
g9
sS'war'
p1004
g12
sS'veneer'
p1005
g9
sS'rainfall'
p1006
g9
sS'head'
p1007
g9
sS'form'
p1008
g6
sS'warrior'
p1009
g21
sS'season'
p1010
g32
sS'blessing'
p1011
g9
sS'stone'
p1012
g32
sS'infection'
p1013
g9
sS'temalacatl'
p1014
g9
sS'part'
p1015
g32
sS'Atzcapoatzalco'
p1016
g9
sS'Yopico'
p1017
g32
sS'child'
p1018
g9
sS'tzapote'
p1019
g9
sS'ward'
p1020
g9
sS'ear'
p1021
g32
sS'feather'
p1022
g52
sS'waist'
p1023
g9
sS'case'
p1024
g9
sS'account'
p1025
g9
sS'warfare'
p1026
g9
sS'incision'
p1027
g9
sS'Classic'
p1028
g9
sS'cap'
p1029
g9
sS'appearance'
p1030
g9
sS'other.His'
p1031
g9
sS'street'
p1032
g9
sS'yopus'
p1033
g9
sS'mythology'
p1034
g9
sS'septum'
p1035
g9
sS'weapon'
p1036
g6
sS'insignia'
p1037
g9
sS'Tezcatlipoca'
p1038
g9
sS'layer'
p1039
g9
sS'cane'
p1040
g9
sS'figure'
p1041
g9
sS'century'
p1042
g9
sS'rattle'
p1043
g9
sS'attribute'
p1044
g9
sS'year'
p1045
g9
sS'xilonen-chicomecoatl'
p1046
g9
sS'middle'
p1047
g9
sS'seed'
p1048
g52
sS'chin'
p1049
g9
sS'manner'
p1050
g9
sS'throat'
p1051
g9
sS'pedestal'
p1052
g9
sS'property'
p1053
g9
sS'dress'
p1054
g9
sS'tan'
p1055
g9
sS'lid'
p1056
g9
sS'laceration'
p1057
g9
sS'end'
p1058
g9
sS'offering'
p1059
g6
sS'silversmith'
p1060
g9
sS'codex'
p1061
g9
sS'wound'
p1062
g9
sS'gladiator'
p1063
g6
sS'forehead'
p1064
g9
sS'instance'
p1065
g9
sS'chest'
p1066
g6
sS'other'
p1067
g32
sS'lip'
p1068
g9
sS'flower'
p1069
g6
sS'sword'
p1070
g9
sS'goldsmith'
p1071
g32
sS'pimple'
p1072
g9
sS'vegetation'
p1073
g52
sS'conclusion'
p1074
g9
sS'ceremony'
p1075
g6
sS'Great'
p1076
g9
sS'slave'
p1077
g6
sS'time'
p1078
g32
sS'garland'
p1079
g9
sS'living'
p1080
g6
sS'symbolism'
p1081
g9
sS'Huexotzincas'
p1082
g9
sS'sacrifice'
p1083
S'13'
p1084
sS'object'
p1085
g9
sS'firepit'
p1086
g9
sS'rain'
p1087
g9
sS'hand'
p1088
g12
sS'necklace'
p1089
g6
sS'fruit'
p1090
g9
sS'Aztecs'
p1091
g9
sS'stripe'
p1092
g9
sS'representation'
p1093
g6
sS'prisoner'
p1094
g6
sS'Mayapan'
p1095
g9
sS'teocuitlapizque'
p1096
g9
sS'maize'
p1097
g6
sS'man'
p1098
g6
sS'Tlacaxipehualizti'
p1099
g9
sS'neck'
p1100
g9
sS'Mexico'
p1101
g9
sS'Mexica'
p1102
g9
sS'urn'
p1103
g9
sS'disease'
p1104
g9
sS'city'
p1105
g6
sS'spectator'
p1106
g9
sS'mother'
p1107
g9
sS'skirmish'
p1108
g9
sS'position'
p1109
g9
sS'painting'
p1110
g9
sS'order'
p1111
g52
sS'wine'
p1112
g9
ssS'xyz_affair'
p1113
(dp1114
S'diplomacy'
p1115
g9
sS'groundwork'
p1116
g9
sS'lack'
p1117
g9
sS'month'
p1118
g6
sS'sixpence'
p1119
g9
sS'passage'
p1120
g9
sS'Pinckney'
p1121
S'14'
p1122
sS'merchant'
p1123
g9
sS'division'
p1124
g6
sS'Federalist'
p1125
g6
sS'advantage'
p1126
g6
sS'mid-july'
p1127
g9
sS'choice'
p1128
g6
sS'appropriation'
p1129
g9
sS'Thomas'
p1130
g9
sS'Maurice'
p1131
g9
sS'XYZ'
p1132
g32
sS'hague'
p1133
g9
sS'George'
p1134
g9
sS'Talleyrand'
p1135
S'35'
p1136
sS'revolution'
p1137
g6
sS'State'
p1138
g6
sS'warmonger'
p1139
g9
sS'reconciliation'
p1140
g9
sS'business'
p1141
g9
sS'assistance'
p1142
g6
sS'charade'
p1143
g9
sS'movement'
p1144
g9
sS'stance'
p1145
g9
sS'exchange'
p1146
g6
sS'makeup'
p1147
g9
sS'change'
p1148
g32
sS'substance'
p1149
g9
sS'unwillingness'
p1150
g9
sS'Alien'
p1151
g9
sS'credit'
p1152
g9
sS'hottinguer'
p1153
g6
sS'action'
p1154
g9
sS'military'
p1155
g9
sS'honor'
p1156
g9
sS'democratic-republican'
p1157
g6
sS'danger'
p1158
g9
sS'confession'
p1159
g9
sS'Hauteval'
p1160
g32
sS'S.'
p1161
g6
sS'buildup'
p1162
g9
sS'crisis'
p1163
g6
sS'Europe'
p1164
g52
sS'use'
p1165
g9
sS'warship'
p1166
g9
sS'June'
p1167
g9
sS'call'
p1168
g9
sS'passport'
p1169
g9
sS'commissioner'
p1170
S'20'
p1171
sS'October'
p1172
g52
sS'dealings'
p1173
g9
sS'American'
p1174
g9
sS'effort'
p1175
g6
sS'Affair'
p1176
g32
sS'account'
p1177
g9
sS'word'
p1178
g9
sS'impasse'
p1179
g9
sS'agent'
p1180
g32
sS'currency'
p1181
g9
sS'guarantee'
p1182
g9
sS'Democratic-Republicans'
p1183
g6
sS'end'
p1184
g6
sS'arrangement'
p1185
g9
sS'establishment'
p1186
g9
sS'w'
p1187
g9
sS'advice'
p1188
g9
sS'loyalty'
p1189
g9
sS'Foreign'
p1190
g9
sS'response'
p1191
g62
sS'solidarity'
p1192
g9
sS'man'
p1193
g62
sS'readiness'
p1194
g9
sS'departure'
p1195
g32
sS'representation'
p1196
g9
sS'order'
p1197
g9
sS'talk'
p1198
g9
sS'office'
p1199
g9
sS'Jay'
p1200
g6
sS'trade'
p1201
g9
sS'Popular'
p1202
g9
sS'attitude'
p1203
g32
sS'avenue'
p1204
g9
sS'monarchist'
p1205
g9
sS'March'
p1206
g52
sS'policy'
p1207
g9
sS'someone'
p1208
g9
sS'return'
p1209
g32
sS'nation'
p1210
g52
sS'half'
p1211
g9
sS'day'
p1212
g9
sS'association'
p1213
g9
sS'term'
p1214
g6
sS'frigate'
p1215
g9
sS'name'
p1216
g62
sS'Council'
p1217
g9
sS'side'
p1218
g9
sS'breakdown'
p1219
g9
sS'signing'
p1220
g9
sS'Bonaparte'
p1221
g9
sS'series'
p1222
g21
sS'Jefferson'
p1223
g6
sS'year'
p1224
g9
sS'navy'
p1225
g9
sS'event'
p1226
g9
sS'William'
p1227
g32
sS'issue'
p1228
g9
sS'Napoleon'
p1229
g9
sS'Francis'
p1230
g9
sS'possibility'
p1231
g9
sS'reason'
p1232
g9
sS'struggle'
p1233
g9
sS'W'
p1234
g9
sS'revolutionary'
p1235
g9
sS'Lucien'
p1236
g9
sS'September'
p1237
g6
sS'Boston'
p1238
g9
sS'place'
p1239
g6
sS'threat'
p1240
g9
sS'invitation'
p1241
g9
sS'Elbridge'
p1242
g62
sS'bargaining'
p1243
g9
sS'number'
p1244
g6
sS'publication'
p1245
g6
sS'Congress'
p1246
g12
sS'attack'
p1247
g9
sS'statement'
p1248
g6
sS'option'
p1249
g9
sS'purchase'
p1250
g9
sS'explanation'
p1251
g6
sS'part'
p1252
g6
sS'Hottinguer'
p1253
g32
sS'instruction'
p1254
g9
sS'negotiator'
p1255
g62
sS'matter'
p1256
g62
sS'acquisition'
p1257
g6
sS'motivation'
p1258
g9
sS'Formio'
p1259
g9
sS'argument'
p1260
g9
sS'Pickering'
p1261
g9
sS'sincerity'
p1262
g9
sS'anger'
p1263
g9
sS'brumaire'
p1264
g9
sS'foreigner'
p1265
g9
sS'instance'
p1266
g9
sS'ideal'
p1267
g9
sS'Minister'
p1268
g9
sS'tactic'
p1269
g9
sS'channel'
p1270
g62
sS'price'
p1271
g9
sS'letter'
p1272
g32
sS'nothing'
p1273
g9
sS'cabinet'
p1274
g62
sS'payment'
p1275
g6
sS'demand'
p1276
S'12'
p1277
sS'episode'
p1278
g9
sS'treaty'
p1279
g9
sS'fact'
p1280
g9
sS'standoff'
p1281
g9
sS'affair'
p1282
g6
sS'selection'
p1283
g9
sS'coup'
p1284
g6
sS'Paris'
p1285
g32
sS'Acts'
p1286
g9
sS'relation'
p1287
g32
sS'debate'
p1288
g9
sS'Republicans'
p1289
g6
sS'proportion'
p1290
g9
sS'French'
p1291
g6
sS'circle'
p1292
g9
sS'Netherlands'
p1293
g9
sS'Mortefontaine'
p1294
g9
sS'means'
p1295
g6
sS'hostility'
p1296
g52
sS'expectation'
p1297
g9
sS'Hague'
p1298
g9
sS'report'
p1299
g9
sS'enemy'
p1300
g9
sS'Alliance'
p1301
g9
sS'Washington'
p1302
g6
sS'stead'
p1303
g9
sS'release'
p1304
g6
sg759
g32
sS'quasi-war'
p1305
g6
sS'Caribbean'
p1306
g6
sS'France'
p1307
S'18'
p1308
sS'defense'
p1309
g9
sS'Cotesworth'
p1310
g6
sS'John'
p1311
g62
sS'favor'
p1312
g9
sS'July'
p1313
g6
sS'Republican'
p1314
g9
sS'Campo'
p1315
g9
sS'Directory'
p1316
S'11'
p1317
sS'approval'
p1318
g9
sS'Dana'
p1319
g6
sS'legislature'
p1320
g9
sS'reaction'
p1321
g52
sS'federalist'
p1322
g6
sS'country'
p1323
g9
sS'Navy'
p1324
g6
sS'comment'
p1325
g9
sS'Timothy'
p1326
g9
sS'madness'
p1327
g9
sS'Englishman'
p1328
g9
sS'loan'
p1329
g62
sS'dispatch'
p1330
g12
sS'height'
p1331
g9
sS'news'
p1332
g9
sS'Hundred'
p1333
g9
sS'basis'
p1334
g9
sS'strategy'
p1335
g9
sS'commission'
p1336
S'13'
p1337
sS'secret'
p1338
g9
sS'interest'
p1339
g6
sS'meeting'
p1340
g27
sS'Adams'
p1341
S'24'
p1342
sS'overture'
p1343
g9
sS'wake'
p1344
g9
sS'minister'
p1345
g32
sS'declaration'
p1346
g6
sS'Secretary'
p1347
g6
sS'case'
p1348
g9
sS'Federalists'
p1349
S'10'
p1350
sS'presidency'
p1351
g9
sS'Marshall'
p1352
S'11'
p1353
sS'value'
p1354
g9
sS'General'
p1355
g9
sS'pace'
p1356
g9
sS'manner'
p1357
g9
sS'resident'
p1358
g9
sS'evening'
p1359
g9
sS'tenor'
p1360
g9
sS'party'
p1361
g6
sS'administration'
p1362
g52
sS'member'
p1363
g32
sS'unity'
p1364
g9
sS'speech'
p1365
g52
sS'President'
p1366
g12
sS'document'
p1367
g9
sS'conflict'
p1368
g9
sS'week'
p1369
g32
sS'Vans'
p1370
g32
sS'opinion'
p1371
g9
sS'Senate'
p1372
g6
sS'Pierre'
p1373
g9
sS'States'
p1374
S'14'
p1375
sS'person'
p1376
g9
sg841
g32
sS'position'
p1377
g52
sS'negotiation'
p1378
S'17'
p1379
sS'United'
p1380
S'14'
p1381
sS'money'
p1382
g6
sS'executive'
p1383
g9
sS'rest'
p1384
g9
sS'Nicholas'
p1385
g9
sS'bank'
p1386
g9
sS'republic'
p1387
g32
sS'government'
p1388
g52
sS'disagreement'
p1389
g9
sS'seizure'
p1390
g9
sS'background'
p1391
g9
sS'secrecy'
p1392
g9
sS'credentials'
p1393
g6
sS'Consul'
p1394
g9
sS'chamber'
p1395
g9
sS'deal'
p1396
g9
sS'February'
p1397
g9
sS'authority'
p1398
g6
sS'Commission'
p1399
g9
sS'U.'
p1400
g6
sS'insistence'
p1401
g9
sS'home'
p1402
g9
sS'anti-american'
p1403
g9
sS'recognition'
p1404
g9
sS'Attorney'
p1405
g9
sS'Lee'
p1406
g9
sS'decision'
p1407
g9
sS'leader'
p1408
g6
sS'Sedition'
p1409
g9
sS'assembly'
p1410
g9
sS'power'
p1411
g62
sS'agreement'
p1412
g52
sS'expansion'
p1413
g9
sS'confrontation'
p1414
g9
sS'substitution'
p1415
g9
sS'First'
p1416
g9
sS'December'
p1417
g9
sS'army'
p1418
g9
sS'shipping'
p1419
g9
sS'dinner'
p1420
g6
sS'Americans'
p1421
g32
sS'Baron'
p1422
g9
sS'communication'
p1423
g9
sS'neutrality'
p1424
g6
sS'question'
p1425
g9
sS'start'
p1426
g9
sS'November'
p1427
g52
sS'war'
p1428
S'20'
p1429
sS'January'
p1430
g9
sS'mistreatment'
p1431
g9
sS'Coalition'
p1432
g9
sS'Treaty'
p1433
g62
sS'failure'
p1434
g52
sS'construction'
p1435
g9
sS'line'
p1436
g32
sS'raising'
p1437
g9
sS'Bellamy'
p1438
g32
sS'cocommissioner'
p1439
g9
sS'Jean-Conrad'
p1440
g9
sS'Murray'
p1441
g32
sS'Britain'
p1442
g21
sS'problem'
p1443
g9
sS'z'
p1444
g32
sS'Hubbard'
p1445
g6
sS'impropriety'
p1446
g9
sS'fury'
p1447
g9
sS'ship'
p1448
g32
sS'Atlantic'
p1449
g9
sS'Jeffersonian'
p1450
g9
sS'diplomat'
p1451
g21
sS'May'
p1452
g6
sS'peace'
p1453
g62
sS'detail'
p1454
g9
sS'actor'
p1455
g9
sS'role'
p1456
g6
sS'America'
p1457
g9
sS'papers'
p1458
g9
sS'tie'
p1459
g9
sS'Gerry'
p1460
S'31'
p1461
sS'Great'
p1462
g9
sS'time'
p1463
g52
sS'April'
p1464
g9
sS'Charles'
p1465
g52
sS'firestorm'
p1466
g9
sS'bribe'
p1467
g21
sS'Quasi-War'
p1468
g9
sS'representative'
p1469
g9
ssS'xibalba'
p1470
(dp1471
S'Cob\xc3\xa1n'
p1472
g9
sS'Razor'
p1473
g9
sS'skeleton'
p1474
g9
sS'visitor'
p1475
g6
sS'Cave'
p1476
g9
sS'Hun-Came'
p1477
g6
sS'Xibalba'
p1478
S'21'
p1479
sS'existence'
p1480
g9
sS'fear'
p1481
g6
sS'Jaundice'
p1482
g9
sS'worship'
p1483
g6
sS'fifth'
p1484
g9
sS'death'
p1485
g27
sS'scorpion'
p1486
g9
sS'vicinity'
p1487
g6
sS'bench'
p1488
g9
sS'Guatemala'
p1489
g9
sS'location'
p1490
g9
sS'Bat'
p1491
g9
sS'garden'
p1492
g9
sS'ruler'
p1493
g9
sS'Popol'
p1494
g21
sS'suffering'
p1495
g9
sS'Lords'
p1496
g54
sS'bat'
p1497
g9
sS'jaguar'
p1498
g9
sS'name'
p1499
g9
sS'Sweepings'
p1500
g9
sS'form'
p1501
g32
sS'trap'
p1502
g9
sS'starvation'
p1503
g9
sS'domain'
p1504
g9
sS'work'
p1505
g9
sS'people'
p1506
g27
sS'house'
p1507
g52
sS'hail'
p1508
g9
sS'second'
p1509
g9
sS'pain'
p1510
g9
sS'underworld'
p1511
g6
sS'god'
p1512
g52
sS'cooking'
p1513
g9
sS'ballcourt'
p1514
g6
sS'version'
p1515
g9
sS'Pus'
p1516
g9
sS'body'
p1517
g6
sS'accord'
p1518
g9
sS'hero'
p1519
g32
sS'city'
p1520
g32
sS'incarnation'
p1521
g9
sS'Verapaz'
p1522
g9
sS'Chamiaholom'
p1523
g9
sS'pus'
p1524
g9
sS'river'
p1525
g32
sS'Chamiabac'
p1526
g9
sS'Scab'
p1527
g9
sS'trial'
p1528
g6
sS'place'
p1529
g62
sS'dominion'
p1530
g9
sS'defeat'
p1531
g9
sS'Tedlock'
p1532
g9
sS'road'
p1533
g52
sS'Staff'
p1534
g6
sS'duty'
p1535
g9
sS'Death'
p1536
g9
sS'point'
p1537
g9
sS'Xibalbans'
p1538
g52
sS'number'
p1539
g9
sS'twin'
p1540
g6
sS'Way'
p1541
g9
sS'patan'
p1542
g9
sS'razor'
p1543
g9
sS'span'
p1544
g9
sS'trickery'
p1545
g9
sS'area'
p1546
g6
sS'Ahalgana'
p1547
g9
sS'traveller'
p1548
g9
sS'system'
p1549
g9
sS'anyone'
p1550
g9
sS'commission'
p1551
g9
sS'structure'
p1552
g32
sS'Belize'
p1553
g9
sS'entrance'
p1554
g6
sS'Skull'
p1555
g9
sS'Ahalmez'
p1556
g9
sS'fire'
p1557
g9
sS'Xiquiripat'
p1558
g9
sS'heat'
p1559
g9
sS'part'
p1560
g9
sS'mannequin'
p1561
g9
sS'packstrap'
p1562
g9
sS'Seven'
p1563
g9
sS'House'
p1564
g12
sS'blade'
p1565
g9
sS'Demon'
p1566
g32
sS'crossroads'
p1567
g9
sS'slander'
p1568
g9
sS'Ahalpuh'
p1569
g9
sS'Vucub-Came'
p1570
g9
sS'Cold'
p1571
g9
sS'mythology'
p1572
g9
sS'history'
p1573
g9
sS'fashion'
p1574
g9
sS'helper'
p1575
g9
sS'downfall'
p1576
g6
sS'resident'
p1577
g9
sS'blood'
p1578
g52
sS'Flying'
p1579
g9
sS'demon'
p1580
g6
sS'site'
p1581
g9
sS'surface'
p1582
g32
sS'Hot'
p1583
g9
sS'obstacle'
p1584
g6
sS'council'
p1585
g6
sS'home'
p1586
g32
sS'counterfeit'
p1587
g9
sS'court'
p1588
g9
sS'offering'
p1589
g9
sS'cave'
p1590
g9
sS'role'
p1591
g9
sS'destitution'
p1592
g9
sS'test'
p1593
g21
sS'xibalban'
p1594
g9
sS'ball'
p1595
g9
sS'Jaguar'
p1596
g9
sS'sickness'
p1597
g9
sS'sacrifice'
p1598
g6
sS'Vuh'
p1599
g21
sS'hand'
p1600
g9
sS'Chief'
p1601
g9
sS'purpose'
p1602
g9
sS'Milky'
p1603
g9
sS'pair'
p1604
g9
sS"k'iche"
p1605
g32
sS'Bone'
p1606
g9
sS'Anthropologist'
p1607
g9
sS'rift'
p1608
g9
sS'attempt'
p1609
g9
sS'face'
p1610
g9
sS'ahaltocob'
p1611
g9
sS'time'
p1612
g9
sS'Earth'
p1613
g32
sS'inhabitant'
p1614
g9
sS'Dennis'
p1615
g9
sS'wing'
p1616
g9
ssS'xanthophyll'
p1617
(dp1618
S'carotene'
p1619
g12
sS'skin'
p1620
g9
sS'chicken'
p1621
g6
sS'group'
p1622
g62
sS'removal'
p1623
g9
sS'source'
p1624
g32
sS'enzyme'
p1625
g32
sS'\xce\xb2-cryptoxanthin'
p1626
g32
sS'division'
p1627
g6
sS'animal'
p1628
g6
sS'chromatography'
p1629
g6
sS'fat'
p1630
g9
sS'pigment'
p1631
g52
sS'band'
p1632
g9
sS'xantho'
p1633
g9
sS'neoxanthin'
p1634
g9
sS'compound'
p1635
g6
sS'difference'
p1636
g9
sS'phyllon'
p1637
g9
sS'condition'
p1638
g9
sS'name'
p1639
g9
sS'oxygen'
p1640
g52
sS'level'
p1641
g9
sS'phylloxanthin'
p1642
g9
sS'epoxy'
p1643
g9
sS'activity'
p1644
g6
sS'lutea'
p1645
g9
sS'vision'
p1646
g9
sS'carnivore'
p1647
g9
sS'violaxanthin'
p1648
g21
sS'energy'
p1649
g32
sS'plant'
p1650
g32
sS'yolk'
p1651
g9
sS'Wright'
p1652
g9
sS'sight'
p1653
g9
sS'hydrocarbon'
p1654
g9
sS'dinoxanthin'
p1655
g9
sS'diatom'
p1656
g6
sS'increase'
p1657
g9
sS'mammal'
p1658
g32
sS'diadinoxanthin'
p1659
g6
sS'body'
p1660
g9
sS'triplet'
p1661
g9
sS'vitamin'
p1662
g32
sS'reason'
p1663
g9
sS'protection'
p1664
g9
sS'formation'
p1665
g9
sS'separation'
p1666
g9
sS'retinaldehyde'
p1667
g9
sS'reaction'
p1668
g6
sS'study'
p1669
g9
sS'insect'
p1670
g9
sS'pro-vitamin'
p1671
g9
sS'amount'
p1672
g9
sS'hypothesis'
p1673
g9
sS'hydroxyl'
p1674
g9
sS'feed'
p1675
g9
sS'Feb'
p1676
g9
sS'xanthophyll'
p1677
S'21'
p1678
sS'color'
p1679
g32
sS'photoinhibition'
p1680
g9
sS'epoxidase'
p1681
g9
sS'dissipation'
p1682
g9
sS'zeaxanthin'
p1683
S'10'
p1684
sS'decrease'
p1685
g9
sS'ring'
p1686
g9
sS'quenching'
p1687
g52
sS'antheraxanthin'
p1688
g32
sS'eye'
p1689
g32
sS'spinach'
p1690
g9
sS'diatoxanthin'
p1691
g9
sS'retinal-analogue'
p1692
g9
sS'way'
p1693
g9
sS'dinoflagellate'
p1694
g6
sS'\xcf\x86\xcf\x8d\xce\xbb\xce\xbb\xce\xbf\xce\xbd'
p1695
g9
sS'type'
p1696
g9
sS'synthesis'
p1697
g9
sS'function'
p1698
g9
sS'form'
p1699
g6
sS'maculum'
p1700
g9
sS'retina'
p1701
g9
sS'squash'
p1702
g9
sS'beta-ionone'
p1703
g6
sS'discrepancy'
p1704
g9
sS'atom'
p1705
g32
sS'center'
p1706
g9
sS'fly'
p1707
g9
sS'diester'
p1708
g9
sS'exception'
p1709
g9
sS'prune'
p1710
g9
sS'photosynthesis'
p1711
g9
sS'example'
p1712
g32
sS'bridge'
p1713
g9
sS'chlorophyll'
p1714
g6
sS'de-epoxidase'
p1715
g9
sS'epoxide'
p1716
g9
sS'agent'
p1717
g9
sS'protein'
p1718
g6
sS'hydrogen'
p1719
g9
sS'species'
p1720
g9
sS'conversion'
p1721
g9
sS'antenna'
p1722
g9
sS'Food'
p1723
g9
sS'mechanism'
p1724
g6
sS'role'
p1725
g6
sS'aldehyde'
p1726
g9
sS'beta-carotene'
p1727
g9
sS'r-isomer'
p1728
g9
sS'product'
p1729
g9
sS'papaya'
p1730
g9
sS'spot'
p1731
g9
sS'diet'
p1732
g6
sS'beta'
p1733
g9
sS'\xce\xbe\xce\xb1\xce\xbd\xce\xb8\xcf\x8c\xcf\x82'
p1734
g9
sS'purpose'
p1735
g9
sS'pair'
p1736
g9
sS'leaf'
p1737
g62
sS'structure'
p1738
g9
sS'cycle'
p1739
g62
sS'a'
p1740
g32
sS'stress'
p1741
g9
sS'lutein'
p1742
g62
sS'peach'
p1743
g9
sS'light'
p1744
g9
sS'carotenoid'
p1745
g52
sS'egg'
p1746
g9
sS'quantity'
p1747
g9
ssS'xenon'
p1748
(dp1749
S'interpretation'
p1750
g9
sS'Bologna'
p1751
g6
sS'Switzerland'
p1752
g62
sS'Aprile'
p1753
g9
sS'Brown'
p1754
g9
sS'position'
p1755
g9
sS'March'
p1756
g9
sS'Western'
p1757
g9
sS'Xenon'
p1758
g9
sS'Nantes'
p1759
g6
sS'Munster'
p1760
g6
sS'hit'
p1761
g9
sS'Gran'
p1762
g12
sS'electron'
p1763
g6
sS'background'
p1764
g52
sS'45cm2'
p1765
g9
sS'tank'
p1766
g9
sS'particle'
p1767
g6
sS'signal'
p1768
g62
sS'chamber'
p1769
g6
sS'phase'
p1770
g12
sS'pmt'
p1771
g6
sS'xenon1t'
p1772
g32
sS'sensitivity'
p1773
g9
sS'Weizmann'
p1774
g6
sS'France'
p1775
g6
sS'result'
p1776
g9
sS'laboratory'
p1777
g6
sS'Rice'
p1778
g32
sS'Max-Planck-Institut'
p1779
g6
sS'pattern'
p1780
g9
sS'tube'
p1781
g9
sS'Gutenberg'
p1782
g6
sS'experiment'
p1783
g62
sS'China'
p1784
g9
sS'Bern'
p1785
g6
sS'3d'
p1786
g9
sS'xenon10'
p1787
g6
sS'run'
p1788
g6
sS'veto'
p1789
g6
sS'University'
p1790
S'26'
p1791
sS'water'
p1792
g9
sS'Principle'
p1793
g9
sS'Universite'
p1794
g6
sS'ratio'
p1795
g9
sS'mdru'
p1796
g6
sS'ionization'
p1797
g32
sS'Mainz'
p1798
g6
sS'interaction'
p1799
g52
sS'Portugal'
p1800
g32
sS'Zurich'
p1801
g32
sS'region'
p1802
g9
sS'nikhef'
p1803
g6
sS'events/kg/day'
p1804
g9
sS'signature'
p1805
g9
sS'Laboratory'
p1806
g21
sS'gamma'
p1807
g9
sS'Netherlands'
p1808
g6
sS'projection'
p1809
g6
sS'point'
p1810
g9
sS'XENON'
p1811
g9
sS'Los'
p1812
g6
sS'kev'
p1813
g9
sS'Detector'
p1814
g9
sS'INFN-Bologna'
p1815
g6
sS'Lawrence'
p1816
g9
sS'discrimination'
p1817
g9
sS'top'
p1818
g6
sS'acceptance'
p1819
g9
sS'Sasso'
p1820
g12
sS'wimp'
p1821
g21
sS'California'
p1822
g6
sS'astrophysics'
p1823
g9
sS'ton'
p1824
g9
sS'Elena'
p1825
g9
sS'Reserve'
p1826
g9
sS'43cm2'
p1827
g9
sS'October'
p1828
g9
sS'Coimbra'
p1829
g32
sS'form'
p1830
g9
sS'gev/c2'
p1831
g32
sS'Science'
p1832
g6
sS'gas'
p1833
g9
sS'search'
p1834
g6
sS'volume'
p1835
g9
sS'construction'
p1836
g9
sS'determination'
p1837
g9
sS'radio-pure'
p1838
g9
sS'Time'
p1839
g6
sS'recoil'
p1840
g62
sS'kg'
p1841
g32
sS'spin'
p1842
g9
sS'institution'
p1843
g9
sS'fur'
p1844
g6
sS'target'
p1845
g52
sS'Tong'
p1846
g9
sS'Jiao'
p1847
g9
sS'science'
p1848
g6
sS'Kernphysik'
p1849
g6
sS'project'
p1850
g9
sS'matter'
p1851
g21
sS'limit'
p1852
g32
sS'ultra'
p1853
g9
sS'National'
p1854
g52
sS'Columbia'
p1855
g52
sS'Livermore'
p1856
g9
sS'Italy'
p1857
g12
sS'USA'
p1858
S'14'
p1859
sS'Shanghai'
p1860
g9
sS'discrepancy'
p1861
g9
sS'SUBATECH'
p1862
g6
sS'Johannes'
p1863
g6
sS'minimum'
p1864
g9
sS'Israel'
p1865
g6
sg353
g6
sS's2'
p1866
g6
sS's1'
p1867
g9
sS'radiation'
p1868
g9
sS'cross'
p1869
g6
sS'delay'
p1870
g9
sS'field'
p1871
g6
sS'Germany'
p1872
g21
sS'xenon100'
p1873
g62
sS'detector'
p1874
g52
sS'parameter'
p1875
g9
sS'neutron'
p1876
g9
sS'Case'
p1877
g9
sS'Purdue'
p1878
g6
sS'Institute'
p1879
g6
sS'collaboration'
p1880
g6
sS'xenon'
p1881
g12
sS'drift'
p1882
g9
sS'Angeles'
p1883
g6
sS'beta'
p1884
g9
sS'47cm2'
p1885
g9
sS'Yale'
p1886
g9
sS'wimp-nucleon'
p1887
g6
sS's2/s1'
p1888
g9
sS'tpc'
p1889
g6
sS'light'
p1890
g9
sS'professor'
p1891
g9
sS'm'
p1892
g9
sS'mass'
p1893
g6
sS'time'
p1894
g9
sS'velocity'
p1895
g9
sS'model'
p1896
g9
sS'scintillation'
p1897
g32
sS'section'
p1898
g6
ssS'x-ray_computed_tomography'
p1899
(dp1900
S'Canada'
p1901
g9
sS'concept'
p1902
g9
sS'embolism'
p1903
g9
sS'ceramic'
p1904
g9
sS'rod'
p1905
g9
sS'focus'
p1906
g6
sS'month'
p1907
g6
sS'disc'
p1908
g9
sS'computation'
p1909
g6
sS'skin'
p1910
g9
sS'Department'
p1911
g9
sS'row'
p1912
g52
sS'millisecond'
p1913
g9
sS'William'
p1914
g9
sS'object'
p1915
S'12'
p1916
sS'maximum-intensity'
p1917
g9
sS'sulfate'
p1918
g32
sS'parenchyma'
p1919
g9
sS'Ronald'
p1920
g9
sS'expert'
p1921
g6
sS'appendicitis'
p1922
g9
sS'health'
p1923
g32
sS'Prize'
p1924
g9
sS'advantage'
p1925
g62
sS'barium'
p1926
g52
sS'datum'
p1927
S'11'
p1928
sS'nephropathy'
p1929
g9
sS'electron'
p1930
g32
sS'nodule'
p1931
g32
sS'mpr'
p1932
g6
sS'artery'
p1933
g62
sS'difference'
p1934
g9
sS'Lasker'
p1935
g9
sS'strand'
p1936
g9
sS'nausea'
p1937
g9
sS'beam'
p1938
g27
sS'investigator'
p1939
g9
sS'issue'
p1940
g6
sS'array'
p1941
g52
sS'rights'
p1942
g9
sS'list'
p1943
g9
sS'gun'
p1944
g9
sS'item'
p1945
g9
sS'form'
p1946
g62
sS'Pfizer'
p1947
g6
sS'path'
p1948
g6
sS'inspection'
p1949
g9
sS'application'
p1950
g62
sS'fluoroscope'
p1951
g9
sS'mSv'
p1952
g9
sS'maximization'
p1953
g9
sS'Nova'
p1954
g9
sS'past'
p1955
g9
sS'radiograph'
p1956
g9
sS'second'
p1957
g9
sS'invention'
p1958
g6
sS'design'
p1959
g52
sS'insertion'
p1960
g9
sS'assembly'
p1961
g6
sS'fluoroscopy'
p1962
g9
sS'cat'
p1963
g6
sS'leakage'
p1964
g9
sS'index'
p1965
g9
sS'Head'
p1966
g9
sS'Vallebona'
p1967
g9
sS'power'
p1968
g32
sS'apparatus'
p1969
g6
sS'assistance'
p1970
g9
sS'disease'
p1971
g52
sS'asic'
p1972
g9
sS'Johann'
p1973
g9
sS'availability'
p1974
g6
sS'cell'
p1975
g6
sS'axial'
p1976
g9
sS'printing'
p1977
g9
sS'Imaging'
p1978
g9
sS'reconstruction'
p1979
S'17'
p1980
sS'tribute'
p1981
g9
sS'America'
p1982
g9
sS'public'
p1983
g9
sS'contrast'
p1984
S'18'
p1985
sS'3d'
p1986
g62
sS'body'
p1987
S'13'
p1988
sS'Kingdom'
p1989
g6
sS'segmentation'
p1990
g6
sS'explosion'
p1991
g9
sS'degree'
p1992
g9
sS'component'
p1993
g32
sS'water'
p1994
g6
sS'excess'
p1995
g9
sS'consideration'
p1996
g9
sS'perforation'
p1997
g9
sS'change'
p1998
g9
sS'scanner'
p1999
S'26'
p2000
sS'photomultiplier'
p2001
g32
sS'pdp11/34'
p2002
g9
sS'Energy'
p2003
g9
sS'title'
p2004
g9
sS'ctx'
p2005
g9
sS'example'
p2006
g27
sS'airport'
p2007
g9
sS'cesium'
p2008
g9
sS'resonance'
p2009
g9
sS'Society'
p2010
g62
sS'windowing'
p2011
g9
sS'technique'
p2012
S'19'
p2013
sS'projection'
p2014
g27
sS'campaign'
p2015
g52
sS'Imatron'
p2016
g9
sS'Robert'
p2017
g9
sS'msct'
p2018
g9
sS'Health'
p2019
g9
sS'S.'
p2020
g9
sS'market'
p2021
g9
sS'Europe'
p2022
g9
sS'use'
p2023
S'13'
p2024
sS'perfusion'
p2025
g9
sS'msv'
p2026
g52
sS'hospital'
p2027
g6
sS'prevalence'
p2028
g9
sS'guideline'
p2029
g52
sS'eleven'
p2030
g9
sS'program'
p2031
g32
sS'music'
p2032
g9
sS'manufacturer'
p2033
g32
sS'type'
p2034
S'10'
p2035
sS'today'
p2036
g6
sS'screening'
p2037
g12
sS'flaw'
p2038
g9
sS'October'
p2039
g32
sS'iodide'
p2040
g6
sS'definition'
p2041
g9
sS'baggage/parcel'
p2042
g9
sS'company'
p2043
g32
sS'emission'
p2044
g52
sS'award'
p2045
g9
sS'Hayes'
p2046
g9
sS'insufficiency'
p2047
g9
sS'adult'
p2048
g6
sS'word'
p2049
g6
sS'room'
p2050
g6
sS'hour'
p2051
g6
sS'f'
p2052
g9
sS'mm'
p2053
g9
sS'equation'
p2054
g9
sS'work'
p2055
g6
sS'UCLA'
p2056
g9
sS'radon'
p2057
g9
sS'oxide'
p2058
g9
sS'Improvements'
p2059
g9
sS'transparency'
p2060
g9
sS'following'
p2061
g9
sS'320-slice'
p2062
g9
sS'CT.'
p2063
g62
sS'dosage'
p2064
g9
sS'history'
p2065
g6
sS'heart'
p2066
g52
sS'iodine'
p2067
g9
sS'scan'
p2068
S'26'
p2069
sS'process'
p2070
g52
sS'agent'
p2071
S'12'
p2072
sS'stroke'
p2073
g6
sS'cross-section'
p2074
g6
sS'bend'
p2075
g9
sS'Digital'
p2076
g9
sS'pelvis'
p2077
g9
sS'axis'
p2078
g21
sS'multiplanar'
p2079
g9
sS'radiographer'
p2080
g9
sS'dialysis'
p2081
g32
sS'photodiode'
p2082
g9
sS'damage'
p2083
g6
sS'Anatomy'
p2084
g9
sS'Electron'
p2085
g9
sS'energy'
p2086
g32
sS'parameter'
p2087
g32
sS'isotropic'
p2088
g9
sS'map'
p2089
g9
sS'radiosurgery'
p2090
g9
sS'lesion'
p2091
g6
sS'cohort'
p2092
g9
sS'advice'
p2093
g9
sS'abdomen'
p2094
g6
sS'mip/minip'
p2095
g9
sS'mesh'
p2096
g9
sS'blood'
p2097
g9
sS'date'
p2098
g9
sS'law'
p2099
g9
sS'response'
p2100
g9
sS'purchase'
p2101
g9
sS'workstation'
p2102
g9
sS'attempt'
p2103
g9
sS'third'
p2104
g9
sS'Natterer'
p2105
g9
sS'amount'
p2106
g52
sS'peritonitis'
p2107
g9
sS'element'
p2108
g6
sS'complexity'
p2109
g6
sS'ambulance'
p2110
g9
sS'representation'
p2111
g62
sS'increase'
p2112
g32
sS'scintillation'
p2113
g32
sS'order'
p2114
g6
sS'interpretation'
p2115
g9
sS'anaphylaxi'
p2116
g6
sS'radiation'
p2117
S'44'
p2118
sS'distortion'
p2119
g9
sS'ctpa'
p2120
g9
sS'brain'
p2121
g62
sS'paper'
p2122
g9
sS'Organization'
p2123
g9
sS'existence'
p2124
g6
sS'Pixel'
p2125
g6
sS'chemical'
p2126
g9
sS'group'
p2127
g6
sS'radiologist'
p2128
g9
sS'Automatic'
p2129
g9
sS'Stefan'
p2130
g9
sS'pct'
p2131
g9
sS'edge'
p2132
g9
sS'absence'
p2133
g9
sS'production'
p2134
g32
sS'condition'
p2135
g6
sS'stereotactic'
p2136
g9
sS'pneumoencephalography'
p2137
g9
sS'setting'
p2138
g32
sS'sensor'
p2139
g6
sS'someone'
p2140
g6
sS'Gabor'
p2141
g9
sS'practice'
p2142
g62
sS'indexing'
p2143
g9
sS'break'
p2144
g9
sS'MRI'
p2145
g32
sS'half'
p2146
g6
sS'foot'
p2147
g9
sS'rotation'
p2148
g21
sS'Laboratories'
p2149
g9
sS'association'
p2150
g9
sS'term'
p2151
g21
sS'mathematician'
p2152
g6
sS'university'
p2153
g9
sS'level'
p2154
g32
sS'advent'
p2155
g9
sS'2d'
p2156
g6
sS'magnitude'
p2157
g9
sS'testing'
p2158
g9
sS'mode'
p2159
g9
sS'Council'
p2160
g9
sS'ACTA'
p2161
g9
sS'Tufts'
p2162
g9
sS'side'
p2163
g52
sS'trailer'
p2164
g9
sS'bond'
p2165
g9
sS'voxel'
p2166
g9
sS'harm'
p2167
g9
sS'cost'
p2168
g52
sS'worker'
p2169
g9
sS'weight'
p2170
g9
sS'generation'
p2171
g9
sS'series'
p2172
g32
sS'temporale'
p2173
g9
sS'idea'
p2174
g32
sS'fetus'
p2175
g6
sS'solution'
p2176
g32
sS'Calgary'
p2177
g9
sS'Axial'
p2178
g9
sS'frequency'
p2179
g9
sS'r\xc3\xb6ntgenography'
p2180
g9
sS'measure'
p2181
g9
sS'operation'
p2182
g9
sS'hounsfield'
p2183
g9
sS'container'
p2184
g9
sS'matrix'
p2185
g32
sS'space'
p2186
g9
sS'oldendorf'
p2187
g9
sS'emi-scanner'
p2188
g52
sS'algebra'
p2189
g9
sS'research'
p2190
g32
sS'emphysema'
p2191
g9
sS'method'
p2192
S'14'
p2193
sS'etymology'
p2194
g9
sS'investigation'
p2195
g6
sS'safety'
p2196
g9
sS'medicine'
p2197
g52
sS'electronics'
p2198
g9
sS'Cormack'
p2199
g62
sS'evaluation'
p2200
g6
sS'assurance'
p2201
g9
sS'Godfrey'
p2202
g32
sS'foundation'
p2203
g9
sS'angiography'
p2204
g6
sS'theory'
p2205
g6
sS'circumstance'
p2206
g9
sS'University'
p2207
g6
sS'material'
p2208
g12
sS'tomogram'
p2209
g9
sS'diagnostic'
p2210
g9
sS'reason'
p2211
g32
sS'radiology'
p2212
g9
sS'imaging'
p2213
S'21'
p2214
sg759
g9
sS'estimate'
p2215
g52
sS'sophistication'
p2216
g9
sS'likelihood'
p2217
g9
sS'wall'
p2218
g9
sS'care'
p2219
g9
sS'advance'
p2220
g9
sS'colonoscopy'
p2221
g32
sS'interaction'
p2222
g9
sS'ion'
p2223
g9
sS'geometry'
p2224
g32
sS'National'
p2225
g6
sS'transition'
p2226
g9
sS'motion'
p2227
g9
sS'Titanium'
p2228
g9
sS'length'
p2229
g6
sS'plane'
p2230
S'12'
p2231
sS'Ledley'
p2232
g9
sS'threat'
p2233
g9
sS'support'
p2234
g9
sS'purpose'
p2235
g32
sS'origin'
p2236
g9
sS'probability'
p2237
g9
sS'revenue'
p2238
g9
sS'Administration'
p2239
g6
sS'number'
p2240
S'10'
p2241
sS'Asia'
p2242
g9
sS'one'
p2243
g9
sS'xy'
p2244
g9
sS'spect'
p2245
g6
sS'Medicine'
p2246
g32
sS'ring'
p2247
g9
sS'\xc3\x97'
p2248
g9
sS'size'
p2249
g9
sS'interchange'
p2250
g9
sS'North'
p2251
g9
sS'quality'
p2252
g12
sS'introduction'
p2253
g6
sS'calcification'
p2254
g6
sS'top'
p2255
g9
sS'system'
p2256
g21
sS'convention'
p2257
g9
sS'percentage'
p2258
g9
sS'cycle'
p2259
g9
sS'Data'
p2260
g9
sS'Association'
p2261
g6
sS'headache'
p2262
g6
sS'disputed.'
p2263
g9
sS'x-rays'
p2264
g32
sS'option'
p2265
g9
sS'Radiation'
p2266
g32
sS'tool'
p2267
g6
sS'minute'
p2268
g32
sS'radiocontrast'
p2269
g62
sS'artifact'
p2270
g12
sS'task'
p2271
g9
sS'copy'
p2272
g9
sS'perspex'
p2273
g9
sS'institution'
p2274
g9
sS'symptom'
p2275
g9
sS'population'
p2276
g32
sS'steel'
p2277
g9
sS'Voxel'
p2278
g9
sS'target'
p2279
g9
sS'Cancer'
p2280
g9
sS'Radiological'
p2281
g6
sS'recording'
p2282
g9
sS'future'
p2283
g9
sS'iron'
p2284
g9
sS'incidentaloma'
p2285
g6
sS'outcome'
p2286
g6
sS'colonography'
p2287
g6
sS'acquisition'
p2288
g9
sS'sinogram'
p2289
g9
sS'defect'
p2290
g9
sS'attenuation'
p2291
g32
sS'manner'
p2292
g6
sS'need'
p2293
g6
sS'concentration'
p2294
g9
sS'turn'
p2295
g9
sS'modality'
p2296
g9
sS'contents'
p2297
g9
sS'angle'
p2298
g52
sS'fpga'
p2299
g9
sS'Food'
p2300
g9
sS'1960'
p2301
g9
sS'mechanism'
p2302
g9
sS'Transverse'
p2303
g9
sS'equipment'
p2304
g62
sS'chest'
p2305
g6
sS'internal'
p2306
g9
sS'fracture'
p2307
g6
sS'mip'
p2308
g32
sS'detector'
p2309
S'18'
p2310
sS'concern'
p2311
g52
sS'impairment'
p2312
g9
sS'bowel'
p2313
g52
sS'rate'
p2314
g52
sS'pain'
p2315
g9
sS'Morley'
p2316
g9
sS'incidence'
p2317
g9
sS'molecule'
p2318
g9
sS'Pediatric'
p2319
g32
sS'position'
p2320
g6
sS'device'
p2321
g6
sS'coil'
p2322
g9
sS'The'
p2323
g9
sS'minimum-intensity'
p2324
g9
sS'observation'
p2325
g9
sS'failure'
p2326
g62
sS'average'
p2327
g9
sS'sale'
p2328
g9
sS'part'
p2329
g27
sS'principle'
p2330
g6
sS'fossa'
p2331
g9
sS'physics'
p2332
g9
sS'section'
p2333
g52
sS'fact'
p2334
g9
sS'Radiology'
p2335
g21
sS'bomb'
p2336
g9
sS'phenomenon'
p2337
g9
sS'detection'
p2338
g62
sS'Agency'
p2339
g9
sS'Research'
p2340
g9
sS'relation'
p2341
g9
sS'Systems'
p2342
g9
sS'threshold'
p2343
g32
sS'earth'
p2344
g6
sS'fear'
p2345
g9
sS'thickness'
p2346
g6
sS'Kaczmarz'
p2347
g9
sS'decade'
p2348
g6
sS'impact'
p2349
g9
sS'emergency'
p2350
g21
sS'Safety'
p2351
g9
sS'orthopantomography'
p2352
g9
sS'proportion'
p2353
g9
sS'state'
p2354
g9
sS'rash'
p2355
g6
sS'surroundings'
p2356
g9
sS'York'
p2357
g9
sS'USA'
p2358
g9
sS'factor'
p2359
g9
sS'circle'
p2360
g32
sS'mortality'
p2361
g9
sS'curved-plane'
p2362
g9
sS'expectation'
p2363
g9
sS'joint'
p2364
g9
sS'report'
p2365
g6
sS'GPU'
p2366
g9
sS'mgy'
p2367
g21
sS'portion'
p2368
g9
sS'child'
p2369
g21
sS'Alliance'
p2370
g9
sS'organ'
p2371
g9
sS'hyperdense'
p2372
g6
sS'w/v'
p2373
g9
sS'urography'
p2374
g9
sS'patch'
p2375
g9
sS'Clinic'
p2376
g6
sS'enema'
p2377
g9
sS'precaution'
p2378
g9
sS'vision'
p2379
g9
sS'view'
p2380
g32
sS'FDA'
p2381
g9
sS'irradiation'
p2382
g9
sS'requirement'
p2383
g9
sS'set'
p2384
g32
sS'art'
p2385
g9
sS'concert'
p2386
g9
sS'reference'
p2387
g9
sS'Hospital'
p2388
g9
sS'pitch'
p2389
g9
sS'EMI'
p2390
g21
sS'Allan'
p2391
g32
sS'ebt'
p2392
g6
sS'intensity'
p2393
g9
sS'individual'
p2394
g9
sS'explosive'
p2395
g9
sS'surgery'
p2396
g6
sS'ability'
p2397
g52
sS'project'
p2398
g6
sS'closet'
p2399
g9
sS'record'
p2400
g9
sS'pattern'
p2401
g9
sS'review'
p2402
g6
sS'ctdus'
p2403
g9
sS'progress'
p2404
g6
sS'reading'
p2405
g9
sS'approach'
p2406
g9
sS'screen'
p2407
g9
sS'discovery'
p2408
g9
sS'trauma'
p2409
g32
sS'interbody'
p2410
g9
sS'Central'
p2411
g9
sS'exam'
p2412
g9
sS'parent'
p2413
g9
sS'DDS'
p2414
g9
sS'bronchus'
p2415
g9
sS'incident'
p2416
g9
sS'death'
p2417
g32
sS'extent'
p2418
g6
sS'article'
p2419
g9
sS'inertia'
p2420
g9
sS'reaction'
p2421
g62
sS'installation'
p2422
g9
sS'country'
p2423
g9
sS'region'
p2424
g9
sS'ramp'
p2425
g9
sS'drug'
p2426
g9
sS'Alessandro'
p2427
g9
sS'U.S.'
p2428
g6
sS'tractor'
p2429
g9
sS'context'
p2430
g32
sS'cartilage'
p2431
g32
sS'radiodensity'
p2432
g62
sS'World'
p2433
g6
sS'study'
p2434
S'10'
p2435
sS'supply'
p2436
g9
sS'battery'
p2437
g9
sS'overview'
p2438
g9
sS'sweep'
p2439
g9
sS'Nobel'
p2440
g9
sS'Los'
p2441
g9
sS'colon'
p2442
g9
sS'scanning'
p2443
S'18'
p2444
sS'approval'
p2445
g9
sS'vessel'
p2446
g32
sS'table'
p2447
g6
sS'dislocation'
p2448
g9
sS'technologist'
p2449
g9
sS'War'
p2450
g9
sS'ultrasonography'
p2451
g9
sS'Electric'
p2452
g9
sS'source'
p2453
g27
sS'addition'
p2454
g6
sS'window'
p2455
g21
sS'strategy'
p2456
g9
sS'haemorrhage'
p2457
g6
sS'Computerized'
p2458
g9
sS'Protection'
p2459
g6
sS'interest'
p2460
g32
sS'pe'
p2461
g9
sS'prototype'
p2462
g52
sS'field'
p2463
g12
sS'direction'
p2464
g6
sS'sievert'
p2465
g32
sS'photon'
p2466
g9
sS'precision'
p2467
g9
sS'Nations'
p2468
g9
sS'bulk'
p2469
g9
sS'suspension'
p2470
g9
sS'Cesium'
p2471
g9
sS'overdose'
p2472
g9
sS'CT'
p2473
S'35'
p2474
sS'case'
p2475
g21
sS'physician'
p2476
g32
sS'McLeod'
p2477
g32
sS'tank'
p2478
g6
sS'plain'
p2479
g9
sS'appearance'
p2480
g9
sS'value'
p2481
g21
sS'air'
p2482
g6
sS'information'
p2483
g32
sS'College'
p2484
g6
sS'expiration'
p2485
g9
sS'editorial'
p2486
g9
sS'error'
p2487
g9
sS'situation'
p2488
g6
sS'line-artifact'
p2489
g9
sS'property'
p2490
g9
sS'guide'
p2491
g9
sS'procedure'
p2492
g52
sS'layer'
p2493
g9
sS'century'
p2494
g9
sS'injury'
p2495
g62
sS'site'
p2496
g6
sS'surface'
p2497
g52
sS'hardware'
p2498
g9
sS'Atkinson'
p2499
g9
sS'unit'
p2500
S'12'
p2501
sS'tissue'
p2502
g21
sS'anode'
p2503
g9
sS'cone'
p2504
g9
sS'angiogram'
p2505
g32
sS'translate/rotate'
p2506
g6
sS'technology'
p2507
g52
sS'Georgetown'
p2508
g9
sS'metrology'
p2509
g9
sS'doctor'
p2510
g6
sS'patent'
p2511
g9
sS'nail'
p2512
g6
sS'administration'
p2513
g32
sS's'
p2514
g9
sS'surveillance'
p2515
g6
sS'Mobile'
p2516
g9
sS'complex'
p2517
g6
sS'wheel'
p2518
g9
sS'film'
p2519
g52
sS'infarction'
p2520
g6
sS'servo-mechanism'
p2521
g9
sS'fibrosis'
p2522
g9
sS'week'
p2523
g9
sS'literature'
p2524
g6
sS'Institute'
p2525
g9
sS'effect'
p2526
g12
sS'Angeles'
p2527
g9
sS'neurologist'
p2528
g9
sS'fruit'
p2529
g9
sS'user'
p2530
g9
sg353
S'26'
p2531
sS'catheter'
p2532
g9
sS'Radon'
p2533
g21
sS'opportunity'
p2534
g9
sS'diabetes'
p2535
g9
sS'abnormality'
p2536
g9
sS'IAEA'
p2537
g9
sS'center'
p2538
g9
sS'scenario'
p2539
g9
sS'smoker'
p2540
g9
sS'analysis'
p2541
g32
sS'1970'
p2542
g32
sS'States'
p2543
g27
sS'person'
p2544
g6
sS'hydration'
p2545
g9
sS'landmark'
p2546
g9
sS'organization'
p2547
g6
sS'model'
p2548
g32
sS'muscle'
p2549
g9
sS'United'
p2550
S'11'
p2551
sS'edema'
p2552
g6
sS'money'
p2553
g9
sS'Measurements'
p2554
g9
sS'rest'
p2555
g9
sS'dose'
p2556
S'36'
p2557
sS'front'
p2558
g6
sS'shape'
p2559
g6
sS'incentive'
p2560
g9
sS'patient'
p2561
S'22'
p2562
sS'alternative'
p2563
g6
sS'speed'
p2564
g52
sS'low-level'
p2565
g9
sS'malformation'
p2566
g9
sS'discipline'
p2567
g9
sS'Technologists'
p2568
g6
sS'cancer'
p2569
S'19'
p2570
sS'density'
p2571
g32
sS'point'
p2572
g32
sS'instrument'
p2573
g9
sS'neoplasm'
p2574
g9
sS'treatment'
p2575
g6
sS'usage'
p2576
g32
sS'role'
p2577
g9
sS'transformation'
p2578
g6
sS'complaint'
p2579
g9
sS'kidney'
p2580
g62
sS'Drug'
p2581
g9
sS'period'
p2582
g6
sS'test'
p2583
g32
sS'fusion'
p2584
g6
sS'background'
p2585
g6
sS'world'
p2586
g6
sS'sampling'
p2587
g9
sS'color'
p2588
g6
sS'disadvantage'
p2589
g9
sS'desire'
p2590
g9
sS'England'
p2591
g9
sS'minicomputer'
p2592
g32
sS'success'
p2593
g9
sS'spine'
p2594
g6
sS'pillar'
p2595
g9
sS'manual'
p2596
g9
sS'consensus'
p2597
g9
sS'chamber'
p2598
g9
sS'benefit'
p2599
g6
sS'Bracewell'
p2600
g9
sS'initiative'
p2601
g9
sS'security'
p2602
g32
sS'disorder'
p2603
g9
sS'right'
p2604
g6
sS'sequence'
p2605
g9
sS'Oldendorf'
p2606
g9
sS'West'
p2607
g9
sS'cathode'
p2608
g9
sS'deflection'
p2609
g6
sS'hair'
p2610
g9
sS'Commission'
p2611
g9
sS'New'
p2612
g9
sS'hemorrhage'
p2613
g9
sS'DEC'
p2614
g9
sS'recognition'
p2615
g9
sS'pixel'
p2616
g52
sS'multislice'
p2617
g9
sS'scale'
p2618
g6
sS'lead'
p2619
g6
sS'Radiologic'
p2620
g6
sS'Frank'
p2621
g9
sS'tube'
p2622
S'13'
p2623
sS'pioneer'
p2624
g9
sS'machine'
p2625
g12
sS'Massachusetts'
p2626
g9
sS'greyscale'
p2627
g9
sS'ct'
p2628
S'90'
p2629
sS'knife'
p2630
g9
sS'Gray'
p2631
g9
sS'noise'
p2632
g52
sS'African-born'
p2633
g9
sS'business'
p2634
g9
sS'schedule'
p2635
g9
sS'equivalent'
p2636
g9
sS'processing'
p2637
g32
sS'pressure'
p2638
g9
sS'viewer'
p2639
g9
sS'precontrast'
p2640
g9
sS'dna'
p2641
g6
sS'stage'
p2642
g9
sS'chapter'
p2643
g9
sS'comparison'
p2644
g9
sS'limitation'
p2645
g6
sS'radiography'
p2646
g62
sS'industry'
p2647
g32
sS'chance'
p2648
g9
sS'US'
p2649
g9
sS'tumor'
p2650
g62
sS'range'
p2651
g52
sS'water-tank'
p2652
g9
sS'Transform'
p2653
g32
sS'bone'
p2654
S'10'
p2655
sS'UK'
p2656
g9
sS'tomo'
p2657
g9
sS'Japan'
p2658
g9
sS'mean'
p2659
g9
sS'os'
p2660
g9
sS'software'
p2661
g52
sS'facility'
p2662
g6
sS'garnet'
p2663
g9
sS'image'
p2664
S'64'
p2665
sS'year'
p2666
g27
sS'VC'
p2667
g6
sS'rendering'
p2668
g62
sS'lung'
p2669
g21
sS'operator'
p2670
g9
sS'risk'
p2671
S'18'
p2672
sS'Beatles'
p2673
g9
sS'computer'
p2674
g62
sS'1980'
p2675
g9
sS'area'
p2676
g54
sS'museum'
p2677
g9
sS'people'
p2678
S'10'
p2679
sS'spiral'
p2680
g6
sS'conservation'
p2681
g9
sS'development'
p2682
g52
sS'structure'
p2683
S'17'
p2684
sS'way'
p2685
g9
sS'examination'
p2686
g6
sS'exposure'
p2687
S'11'
p2688
sS'Herman'
p2689
g9
sS'function'
p2690
g52
sS'head'
p2691
S'11'
p2692
sS'medium'
p2693
g9
sS'N.'
p2694
g9
sS'hu'
p2695
g6
sS'volume'
p2696
S'16'
p2697
sS'shroud'
p2698
g9
sS'injection'
p2699
g9
sS'HU'
p2700
g62
sS'count'
p2701
g9
sS'Scanning'
p2702
g9
sS'Industrial'
p2703
g32
sS'skull'
p2704
g9
sS'extremity'
p2705
g9
sS'characteristic'
p2706
g9
sS'inside'
p2707
g9
sS'maximum'
p2708
g9
sS'crystal'
p2709
g9
sS'\xc2\xb0'
p2710
g9
sS'graphein'
p2711
g9
sS'problem'
p2712
g52
sS'display'
p2713
g52
sS'x-ray'
p2714
S'45'
p2715
sS'Sir'
p2716
g6
sS'sarcophagus'
p2717
g9
sS'attenuating'
p2718
g9
sS'hvac'
p2719
g9
sS'computing'
p2720
g9
sS'measurement'
p2721
g6
sS'evidence'
p2722
g32
sS'engineering'
p2723
g9
sS'Physicists'
p2724
g6
sS'International'
p2725
g6
sS'tomography'
p2726
S'33'
p2727
sS'lifetime'
p2728
g32
sS'Veterans'
p2729
g9
sS'Wimbledon'
p2730
g9
sS'200f'
p2731
g9
sS'variety'
p2732
g6
sS'Mayo'
p2733
g6
sS'percent'
p2734
g6
sS'detail'
p2735
g9
sS'reality'
p2736
g9
sS'rubber'
p2737
g9
sS'superimposition'
p2738
g9
sS'other'
p2739
g9
sS'functionality'
p2740
g9
sS'transport'
p2741
g9
sS'branch'
p2742
g9
sS'department'
p2743
g6
sS'mathematics'
p2744
g32
sS'implant'
p2745
g9
sS'explosive-detection'
p2746
g9
sS'picture'
p2747
g6
sS'gas'
p2748
g9
sS'General'
p2749
g32
sS'variation'
p2750
g6
sS'T.'
p2751
g9
sS'meaning'
p2752
g9
sS'slice'
p2753
S'12'
p2754
sS'coverage'
p2755
g32
sS'Xenon'
p2756
g9
sS'disjunction'
p2757
g9
sS'Scanners'
p2758
g32
sS'South'
p2759
g9
sS'inspiration'
p2760
g9
sS'algorithm'
p2761
g32
sS'vice'
p2762
g6
sS'organism'
p2763
g9
sS'age'
p2764
g6
sS'Modern'
p2765
g9
sS'American'
p2766
g21
sS'Hounsfield'
p2767
g12
sS'depth'
p2768
g9
sS'diagnosis'
p2769
g32
sS'time'
p2770
g12
sS'resolution'
p2771
S'13'
p2772
ssS'x-ray_crystallography'
p2773
(dp2774
S'concept'
p2775
g9
sS'salt'
p2776
g52
sS'Graystone'
p2777
g9
sS'electron'
p2778
S'54'
p2779
sS'rod'
p2780
g9
sS'ha\xc3\xbcy'
p2781
g9
sS'disc'
p2782
g9
sS'reasoning'
p2783
g9
sS'Euler'
p2784
g9
sS'lace'
p2785
g9
sS'William'
p2786
g27
sS'Hofmeister'
p2787
g9
sS'technique'
p2788
S'12'
p2789
sS'father'
p2790
g6
sS'Rosalind'
p2791
g9
sS'quadruple'
p2792
g9
sS'metallurgy'
p2793
g6
sS'mate'
p2794
g62
sS'olivine'
p2795
g9
sS'heterogeneity'
p2796
g9
sS'silicon'
p2797
g9
sS'woman'
p2798
g9
sS'garden'
p2799
g9
sS'advantage'
p2800
g9
sS'datum'
p2801
S'29'
p2802
sS'dioxide'
p2803
g6
sS'heme'
p2804
g9
sS'\xce\xb8'
p2805
g9
sS'\xce\xba'
p2806
g32
sS'\xce\xbb'
p2807
g32
sS'Henry'
p2808
g32
sS'kappa'
p2809
g9
sS'difference'
p2810
g52
sS'capillary'
p2811
g9
sS'Compton'
p2812
g6
sS'rutile'
p2813
g6
sS'caesium'
p2814
g9
sS'level'
p2815
g9
sS'array'
p2816
g21
sS'shock'
p2817
g9
sS'solution'
p2818
g54
sS'laue'
p2819
g9
sS'magnet'
p2820
g9
sS'vector'
p2821
S'10'
p2822
sS'phase'
p2823
S'17'
p2824
sS'cholesterol'
p2825
g6
sS'Paul'
p2826
g32
sS'round'
p2827
g9
sS'zn'
p2828
g9
sS'revolution'
p2829
g9
sS'periodicity'
p2830
g9
sS'Festival'
p2831
g32
sS'Radiation'
p2832
g6
sS'milligram'
p2833
g9
sS'past'
p2834
g9
sS'icsd'
p2835
g9
sS'Wilhelm'
p2836
g9
sS'design'
p2837
g9
sS'earth'
p2838
g9
sS'nmr'
p2839
g6
sS'acid'
p2840
g32
sS'index'
p2841
g62
sS'material'
p2842
S'12'
p2843
sS'clock'
p2844
g9
sS'sum'
p2845
g6
sS'thickness'
p2846
g9
sS'cell'
p2847
S'11'
p2848
sS'version'
p2849
g9
sS'Goldschmidt'
p2850
g9
sS'bird'
p2851
g9
sS'contrast'
p2852
g62
sS'mid-1920'
p2853
g9
sS'processing'
p2854
g9
sS'degree'
p2855
g32
sS'makeup'
p2856
g9
sS'component'
p2857
g52
sS'conformation'
p2858
g32
sS'ionization'
p2859
g9
sS'refinement'
p2860
g32
sS'packing'
p2861
g9
sS'china'
p2862
g9
sS'Machatschki'
p2863
g9
sS'English'
p2864
g9
sS'path'
p2865
g9
sS'principle'
p2866
g52
sS'Crowfoot'
p2867
g9
sS'change'
p2868
g52
sS'\xcf\x89'
p2869
g52
sS'k'
p2870
g9
sS'spinel'
p2871
g9
sS'example'
p2872
g21
sS'trial'
p2873
g32
sS'amount'
p2874
g6
sS'CheMin'
p2875
g9
sS'insulin'
p2876
g6
sS'Francesco'
p2877
g9
sS'dichloroiodide'
p2878
g9
sS'proportionality'
p2879
g9
sS'nylon'
p2880
g9
sS'csicl2'
p2881
g9
sS'Victor'
p2882
g9
sS'diameter'
p2883
g9
sS'Group'
p2884
g6
sS'macromolecule'
p2885
g6
sS'aluminium'
p2886
g9
sS'sulfate'
p2887
g9
sS'Friedrich'
p2888
g9
sS'flexibility'
p2889
g9
sS'Fedorov'
p2890
g9
sS'\xe2\x88\x92'
p2891
g9
sS'unit'
p2892
S'13'
p2893
sS'myoglobin'
p2894
g9
sS'Synchrotron'
p2895
g6
sS'use'
p2896
g32
sS'Chemistry'
p2897
g6
sS'Sommerfeld'
p2898
g9
sS'stream'
p2899
g9
sS'loop'
p2900
g32
sS'fuzziness'
p2901
g9
sS'remainder'
p2902
g9
sS'hemoglobin'
p2903
g9
sS'camera'
p2904
g9
sS'soil'
p2905
g32
sS'resonator'
p2906
g6
sS'today'
p2907
g9
sS'screening'
p2908
g9
sS'October'
p2909
g9
sS'definition'
p2910
g6
sS'Ralph'
p2911
g9
sS'distribution'
p2912
g62
sS'curvature'
p2913
g6
sS'glass'
p2914
g6
sS'interaction'
p2915
g52
sS'r-factor'
p2916
g9
sS'Time'
p2917
g9
sS'Bravais'
p2918
g6
sS'sample'
p2919
S'13'
p2920
sS'mg'
p2921
g9
sS'word'
p2922
g6
sS'sphere'
p2923
g21
sS'mm'
p2924
g6
sS'science'
p2925
g6
sS'equation'
p2926
g9
sS'mn'
p2927
g9
sS'chief'
p2928
g9
sS'Martian'
p2929
g6
sS'\xc2\xb5m'
p2930
g9
sS'twinning'
p2931
g6
sS'industry'
p2932
g9
sS'history'
p2933
g6
sS'figure'
p2934
g9
sS'Hallowes'
p2935
g9
sS'Kathleen'
p2936
g9
sS'household'
p2937
g9
sS'fluorite'
p2938
g9
sS'Collimation'
p2939
g9
sS'titanium'
p2940
g6
sS'way'
p2941
g9
sS'purity'
p2942
g9
sS'\xcf\x86'
p2943
g21
sS'pyrochroite'
p2944
g9
sS'hydrogen'
p2945
g52
sS'protein'
p2946
S'19'
p2947
sS'Walter'
p2948
g6
sS'autobiography'
p2949
g9
sS'redundancy'
p2950
g9
sS'Barkla'
p2951
g9
sS'turn'
p2952
g9
sS'Fraunhofer'
p2953
g9
sS'feature'
p2954
g9
sS'Munich'
p2955
g9
sS'arrangement'
p2956
S'12'
p2957
sS'machine'
p2958
g32
sS'impinging'
p2959
g6
sS'criterion'
p2960
g9
sS'Atom'
p2961
g9
sS'stereochemistry'
p2962
g9
sS'axis'
p2963
g27
sS'parameter'
p2964
g9
sS'sin'
p2965
g62
sS'Structural'
p2966
g6
sS'simplicity'
p2967
g9
sS'sandwich'
p2968
g9
sS'pre-soak'
p2969
g9
sS'information'
p2970
S'11'
p2971
sS'wallpaper'
p2972
g9
sS'tool'
p2973
g6
sS'collection'
p2974
g52
sS'Laue'
p2975
g54
sS'diagram'
p2976
g9
sS'catalog'
p2977
g9
sS'plane'
p2978
S'11'
p2979
sS'curiosity'
p2980
g9
sS'Model'
p2981
g9
sS'Johan'
p2982
g9
sS'1880'
p2983
g9
sS'mg2sn'
p2984
g9
sS'liquid'
p2985
g9
sS'beam'
p2986
S'31'
p2987
sS'Maxwell'
p2988
g9
sS'Knipping'
p2989
g9
sS'autoindexing'
p2990
g9
sS'q'
p2991
S'27'
p2992
sS'complexity'
p2993
g9
sS'gamma'
p2994
g9
sS'correlation'
p2995
g9
sS'alloy'
p2996
g6
sS'representation'
p2997
g9
sS'vapor'
p2998
g9
sS'Linus'
p2999
g6
sS'order'
p3000
g62
sS'insight'
p3001
g9
sS'spallation'
p3002
g9
sS'presence'
p3003
g9
sS'Steno'
p3004
g9
sS'scientist'
p3005
g62
sS'crystallinity'
p3006
g9
sS'nitrogen'
p3007
g9
sS'existence'
p3008
g9
sS'pointer'
p3009
g9
sS'metalloporphyrin'
p3010
g9
sS'chemical'
p3011
S'12'
p3012
sS'group'
p3013
g12
sS'thumb'
p3014
g9
sS'sodium'
p3015
g9
sS'theorem'
p3016
g9
sS'facility'
p3017
g9
sS'imperfection'
p3018
g9
sS'Director'
p3019
g9
sS'condition'
p3020
g21
sS'Helen'
p3021
g9
sS'venture'
p3022
g9
sS'Zeise'
p3023
g9
sS'Auguste'
p3024
g9
sS'indexing'
p3025
g62
sS'solubility'
p3026
g9
sS'scaling'
p3027
g9
sS'process'
p3028
g6
sS'1950'
p3029
g9
sS'receptor'
p3030
g9
sS'compound'
p3031
g21
sS'rotation'
p3032
g12
sS'day'
p3033
g9
sS'Pauling'
p3034
g6
sS'term'
p3035
g9
sS'subunit'
p3036
g9
sS'equality'
p3037
g9
sS'Mineralogy'
p3038
g9
sS'l'
p3039
g9
sS'Moritz'
p3040
g9
sS'magnitude'
p3041
g27
sS'wurtzite'
p3042
g9
sS'mode'
p3043
g9
sS'fiber'
p3044
g32
sS'luminosity'
p3045
g9
sS'nanoliter'
p3046
g9
sS'|'
p3047
g21
sS'scattering'
p3048
S'33'
p3049
sS'bond'
p3050
S'19'
p3051
sS'subset'
p3052
g9
sS'development'
p3053
g52
sS'r'
p3054
S'22'
p3055
sS'square'
p3056
g6
sS'Ewald'
p3057
g21
sS'mgal2o4'
p3058
g9
sS'map'
p3059
g21
sS'series'
p3060
g6
sS'energy'
p3061
g12
sS'idea'
p3062
g32
sS'Joseph'
p3063
g9
sS'measurement'
p3064
g6
sS'laboratory'
p3065
g6
sS'tenth'
p3066
g6
sS'penicillin'
p3067
g9
sS'impurity'
p3068
g9
sS'space'
p3069
S'19'
p3070
sS'oscillation'
p3071
g52
sS'interference'
p3072
g32
sS'research'
p3073
g32
sS'semiconductor'
p3074
g9
sS'method'
p3075
S'30'
p3076
sS'bragg'
p3077
g9
sS'investigation'
p3078
g9
sS'crystallography'
p3079
S'41'
p3080
sS'amplitude'
p3081
g27
sS'Sch\xc3\xb6nflies'
p3082
g9
sS'print'
p3083
g9
sS'calcite'
p3084
g9
sS'size'
p3085
g54
sS'sensor'
p3086
g9
sS'R\xc3\xb6ntgen'
p3087
g9
sS'theory'
p3088
g32
sS'barrier'
p3089
g9
sS'spot'
p3090
S'18'
p3091
sS'goniometer'
p3092
g27
sS'difficulty'
p3093
g6
sS'formation'
p3094
g9
sS'imaging'
p3095
g9
sS'estimate'
p3096
g6
sS'beginning'
p3097
g9
sS'temperature'
p3098
g32
sS'advance'
p3099
g6
sS'Cambridge'
p3100
g32
sS'silicate'
p3101
g32
sS'derivation'
p3102
g9
sS'debye-waller'
p3103
g9
sS'Though'
p3104
g9
sS'Rittenhouse'
p3105
g9
sS'Braggs'
p3106
g9
sS'conversation'
p3107
g9
sS'length'
p3108
g27
sS'Kepler'
p3109
g9
sS'Mirror'
p3110
g9
sS'consequence'
p3111
g9
sS'Wyckoff'
p3112
g9
sS'X-Ray'
p3113
g9
sS'crystallographic'
p3114
g9
sS'Nicolas'
p3115
g9
sS'copper'
p3116
g32
sS'Elastic'
p3117
g9
sS'wave'
p3118
S'27'
p3119
sS'number'
p3120
g54
sS'one'
p3121
g6
sS'symmetry'
p3122
S'20'
p3123
sS'sunlight'
p3124
g9
sS'feldspar'
p3125
g9
sS'ring'
p3126
g52
sS'k\xce\xb2'
p3127
g6
sS'k\xce\xb1'
p3128
g9
sS'mercury'
p3129
g9
sS'law'
p3130
g21
sS'sheet'
p3131
g6
sS'ten'
p3132
g6
sS'tio2'
p3133
g9
sS'carbonate'
p3134
g9
sS'system'
p3135
g52
sS'\xc3\xa5'
p3136
g32
sS'plastic'
p3137
g9
sS'assumption'
p3138
g9
sS'recrystallization'
p3139
g6
sS'hundred'
p3140
g62
sS'Data'
p3141
g9
sS'shell'
p3142
g9
sS'lot'
p3143
g9
sS'relationship'
p3144
g9
sS'relative'
p3145
g9
sS'part'
p3146
g32
sS'diffractometer'
p3147
g9
sS'reflection'
p3148
S'39'
p3149
sS'distance'
p3150
g9
sS'photograph'
p3151
g9
sS'target'
p3152
g32
sS'isolation'
p3153
g9
sS'project'
p3154
g9
sS'matter'
p3155
g52
sS'future'
p3156
g9
sS'magnesium'
p3157
g9
sS'Debye'
p3158
g9
sS'light'
p3159
g54
sS'Peter'
p3160
g6
sS'powder'
p3161
g21
sS'hexamethylbenzene'
p3162
g9
sS'function'
p3163
g54
sS'chlorophyll'
p3164
g9
sS'Lawrence'
p3165
g32
sS'measure'
p3166
g52
sS'defect'
p3167
g9
sS'robot'
p3168
g9
sS'Johannes'
p3169
g9
sS'sax'
p3170
g32
sS'conjugate'
p3171
g9
sS'graphite'
p3172
g6
sS'concentration'
p3173
g9
sS'ocean'
p3174
g9
sS'ray'
p3175
g6
sS'Development'
p3176
g9
sS'conversion'
p3177
g9
sS'strength'
p3178
g52
sS'ewald'
p3179
g9
sS'Patterson'
p3180
g32
sS'Albert'
p3181
g6
sS'annealing'
p3182
g9
sS'mechanism'
p3183
g9
sS'polarization'
p3184
g32
sS'potential'
p3185
g32
sS'finding'
p3186
g9
sS'detector'
p3187
g6
sS'conductivity'
p3188
g9
sS'snowflake'
p3189
g9
sS'Bank'
p3190
g9
sS'accuracy'
p3191
g9
sS'reality'
p3192
g9
sS'phthalocyanine'
p3193
g9
sS'object'
p3194
g9
sS'Diffraction'
p3195
g9
sS'chart'
p3196
g9
sS'virus'
p3197
g6
sS'si/o'
p3198
g9
sS'pair'
p3199
g9
sS'Gregory'
p3200
g9
sS'Conrad'
p3201
g9
sS'model'
p3202
S'23'
p3203
sS'polyethylene'
p3204
g9
sS'observation'
p3205
g9
sS'average'
p3206
g9
sg1892
g9
sS'disease'
p3207
g9
sS'face'
p3208
g52
sS'Barlow'
p3209
g6
sS'h2o'
p3210
g9
sS'kw'
p3211
g6
sS'corrin'
p3212
g9
sS'crystallographer'
p3213
g27
sS'physics'
p3214
g32
sS'fact'
p3215
g9
sS'quantity'
p3216
g6
sS'event'
p3217
g6
sS'reactor'
p3218
g9
sS'techno-aesthetics'
p3219
g9
sS'Research'
p3220
g9
sS'Chemical'
p3221
g9
sS'corner'
p3222
g9
sS'scatterer'
p3223
S'10'
p3224
sS'decade'
p3225
g6
sS'principal'
p3226
g9
sS'Poor'
p3227
g9
sS'ratio'
p3228
g6
sS'b-factor'
p3229
g9
sS'Hull'
p3230
g6
sS'experiment'
p3231
g54
sS'helix'
p3232
g9
sS'stability'
p3233
g6
sS'factor'
p3234
g54
sS'circle'
p3235
g6
sS'anatase'
p3236
g6
sS'Synchrotrons'
p3237
g9
sS'plate'
p3238
g32
sS'move'
p3239
g9
sS'means'
p3240
g9
sS'assistant'
p3241
g9
sS'routine'
p3242
g9
sS'freezing'
p3243
g6
sS'Crystal'
p3244
g52
sS'Greninger'
p3245
g9
sS'dv'
p3246
g9
sS'Prize'
p3247
g52
sS'sperm'
p3248
g9
sS'Hessel'
p3249
g9
sS'continuum'
p3250
g9
sS'h'
p3251
g9
sS'diamond'
p3252
g6
sS'alteration'
p3253
g9
sS'public'
p3254
g9
sS'microscope'
p3255
g9
sg759
g32
sS'ph'
p3256
g9
sS'view'
p3257
g9
sS'set'
p3258
S'11'
p3259
sS'pyrite'
p3260
g9
sS'burst'
p3261
g9
sS'liquor'
p3262
g9
sS'1920'
p3263
g9
sS'Source'
p3264
g9
sS'intensity'
p3265
S'22'
p3266
sS'radius'
p3267
g32
sS'result'
p3268
g6
sS'close'
p3269
g9
sS'John'
p3270
g9
sS'arm'
p3271
g9
sS'concern'
p3272
g9
sS'friedel-mate'
p3273
g9
sS'practice'
p3274
g32
sS'formulum'
p3275
g32
sS'crystal'
p3276
S'136'
p3277
sS'pattern'
p3278
S'16'
p3279
sS'zeolite'
p3280
g9
sS'label'
p3281
g9
sS'nucleation'
p3282
g9
sS'state'
p3283
g6
sS'atomic-resolution'
p3284
g6
sS'beamline'
p3285
g9
sS'limit'
p3286
g9
sS'boundary'
p3287
g9
sS'discovery'
p3288
g6
sS'iron'
p3289
g9
sS'nature'
p3290
g9
sS'importance'
p3291
g6
sS'spacing'
p3292
g54
sS'screen'
p3293
g6
sS'vitamin'
p3294
g6
sS'analyzer'
p3295
g9
sS'physicist'
p3296
g32
sS'incident'
p3297
g32
sS'bijvoet'
p3298
g9
sS'carbon'
p3299
g9
sS'Scherrer'
p3300
g9
sS'understanding'
p3301
g52
sS'naphthalene'
p3302
g9
sS'water'
p3303
g32
sS'cos'
p3304
g9
sg2052
S'16'
p3305
sS'goal'
p3306
g6
sS'region'
p3307
g9
sS'density'
p3308
S'27'
p3309
sS'Arthur'
p3310
g6
sS'drug'
p3311
g6
sS'Thomson'
p3312
g6
sg2514
g6
sS'rose'
p3313
g9
sS'Laboratory'
p3314
g9
sS'contribution'
p3315
g9
sS'Glover'
p3316
g9
sS'extent'
p3317
g9
sS'point'
p3318
g27
sS'overview'
p3319
g9
sS'Snow'
p3320
g9
sS'sampling'
p3321
g9
sS'fes2'
p3322
g9
sS'table'
p3323
g9
sS'Lonsdale'
p3324
g9
sS'ether'
p3325
g9
sS'complication'
p3326
g9
sS'basis'
p3327
g9
sS'crystallization'
p3328
S'16'
p3329
sS'Hodgkin'
p3330
g9
sS'spread'
p3331
g9
sS'curtain'
p3332
g9
sS'Perutz'
p3333
g9
sS'exhibition'
p3334
g9
sS'field'
p3335
g62
sS'direction'
p3336
S'10'
p3337
sS'nickel'
p3338
g9
sS'path-length'
p3339
g9
sS'thousand'
p3340
g62
sS'grating'
p3341
g9
sS'gas'
p3342
g9
sS'c'
p3343
g54
sS'spectrum'
p3344
g32
sS'microliter'
p3345
g9
sS'determination'
p3346
g6
sS'fullerene'
p3347
g9
sS'kv'
p3348
g9
sS'porphyrin'
p3349
g9
sS'anthracene'
p3350
g9
sS'case'
p3351
g54
sS'laser'
p3352
g9
sS'batch'
p3353
g9
sS'value'
p3354
g62
sS'n'
p3355
g21
sS'calcium'
p3356
g9
sS'thousandth'
p3357
g9
sS'behavior'
p3358
g9
sS'error'
p3359
g52
sS'property'
p3360
g62
sS'study'
p3361
S'10'
p3362
sS'procedure'
p3363
g9
sS'~'
p3364
g62
sS'polymer'
p3365
g9
sS'collimator'
p3366
g9
sS'orientation'
p3367
g27
sS'sweetspot'
p3368
g9
sS'century'
p3369
g32
sS'sidechain'
p3370
g9
sS'von'
p3371
g32
sS'micrometer'
p3372
g9
sS'regularity'
p3373
g62
sS'bias'
p3374
g9
sS'anode'
p3375
g9
sS'rscreen'
p3376
g32
sS'pathology'
p3377
g9
sS'Crookes'
p3378
g9
sS'thesis'
p3379
g9
sS'radiation'
p3380
S'18'
p3381
sS'textile'
p3382
g6
sS'complex'
p3383
g9
sS'film'
p3384
g32
sS'James'
p3385
g9
sS'modification'
p3386
g9
sS'feather'
p3387
g9
sS'composition'
p3388
g9
sS'neutron'
p3389
g54
sS'mosaicity'
p3390
g6
sS'week'
p3391
g9
sS'Limitations'
p3392
g9
sS'oil'
p3393
g9
sS'brucite'
p3394
g9
sS'effect'
p3395
g6
sS'hand'
p3396
g9
sS'ion'
p3397
g9
sS'kin'
p3398
g32
sS'resonance'
p3399
g32
sS'angle'
p3400
S'18'
p3401
sS'whale'
p3402
g9
sS'mosaic'
p3403
g9
sS'polygon'
p3404
g6
sS'Recording'
p3405
g9
sS'fourier'
p3406
S'24'
p3407
sS'rna'
p3408
g9
sS'center'
p3409
g9
sS'database'
p3410
g21
sS'Miller'
p3411
g62
sS'analysis'
p3412
g21
sS'data-set'
p3413
g9
sS'edge'
p3414
g9
sS'mother'
p3415
g9
sS'position'
p3416
S'15'
p3417
sS'wave-vector'
p3418
g6
sS'chemistry'
p3419
g12
sS'dimension'
p3420
g32
sS'Ren\xc3\xa9'
p3421
g9
sS'Wellcome'
p3422
g9
sS'storage'
p3423
g9
sS'shape'
p3424
g6
sS'integer'
p3425
g32
sS'CCD'
p3426
g9
sS'glue'
p3427
g9
sS'speed'
p3428
g32
sS'rover'
p3429
g6
sS'generator'
p3430
g9
sS'vibration'
p3431
g9
sS'absorption'
p3432
g9
sS'lighthouse'
p3433
g32
sS'character'
p3434
g9
sS'source'
p3435
g52
sS'pyroxene'
p3436
g9
sS'2\xce\xb8'
p3437
g9
sS'blob'
p3438
g9
sS'crack'
p3439
g9
sS'constant'
p3440
g6
sS'role'
p3441
g9
sS'angstrom'
p3442
g12
sS'bio'
p3443
g9
sS'Bijvoet'
p3444
g9
sS'Evgraf'
p3445
g9
sS'Cavendish'
p3446
g9
sS'nano3'
p3447
g9
sS'damage'
p3448
g6
sS'Nobel'
p3449
g52
sS'membrane'
p3450
g52
sS'd'
p3451
g32
sS'bonding'
p3452
g12
sS'Cowdery'
p3453
g9
sS'success'
p3454
g9
sS'gift'
p3455
g9
sS'signal'
p3456
g6
sS'brookite'
p3457
g6
sS'London'
p3458
g9
sS'byproduct'
p3459
g9
sS'clay'
p3460
g9
sS'glycol'
p3461
g9
sS'Maria'
p3462
g9
sS'fluoride'
p3463
g9
sS'replacement'
p3464
g9
sS'benzene'
p3465
g9
sS'Pattern'
p3466
g6
sS'crown'
p3467
g9
sS'kda'
p3468
g9
sS'oh'
p3469
g6
sS'growth'
p3470
g9
sS'Mars'
p3471
g9
sS'New'
p3472
g9
sS'nanometer'
p3473
g9
sS'dislocation'
p3474
g9
sS'scale'
p3475
g32
sS'channel'
p3476
g9
sS'deposition'
p3477
g6
sS'tube'
p3478
g52
sS'Ha\xc3\xbcy'
p3479
g9
sS'detergent'
p3480
g6
sS'unit-cell'
p3481
g32
sS'lattice'
p3482
g12
sS'phasing'
p3483
g32
sS'nitrate'
p3484
g9
sS't'
p3485
g9
sS'\xc2\xb0'
p3486
g27
sS'biology'
p3487
g9
sS'noise'
p3488
g6
sS'assembly'
p3489
g9
sS'power'
p3490
g6
sS'Strena'
p3491
g9
sS'molecule'
p3492
S'43'
p3493
sS'Grimaldi'
p3494
g9
sS'agreement'
p3495
g9
sS'illustration'
p3496
g9
sS'David'
p3497
g9
sS'step'
p3498
g21
sS'1930'
p3499
g9
sS'formula_2'
p3500
g9
sS'variation'
p3501
g32
sS'volcano'
p3502
g9
sS'dna'
p3503
g6
sS'ammonium'
p3504
g9
sS'Rocknest'
p3505
g9
sS'manufacturer'
p3506
g9
sS'comparison'
p3507
g9
sS'valence'
p3508
g9
sS'extension'
p3509
g9
sS'constraint'
p3510
g6
sS'freedom'
p3511
g6
sS'certainty'
p3512
g9
sS'dependence'
p3513
g6
sS'range'
p3514
g52
sS'Dorothy'
p3515
g9
sS'block'
p3516
g9
sS'mineralogy'
p3517
g9
sS'garnet'
p3518
g9
sS'image'
p3519
S'17'
p3520
sS'year'
p3521
g6
sS'kout'
p3522
g52
sS'son'
p3523
g9
sS'device'
p3524
g9
sS'promise'
p3525
g9
sS'Kendrew'
p3526
g9
sS'pharmaceutical'
p3527
g9
sS'area'
p3528
g9
sS'Assistant'
p3529
g9
sS'Collection'
p3530
g9
sS'dispersion'
p3531
g9
sS'width'
p3532
g6
sS'Megaw'
p3533
g6
sS'fraction'
p3534
g9
sS'phenomenon'
p3535
g32
sS'exposure'
p3536
g9
sS'synchrotron'
p3537
g21
sS'disorder'
p3538
g62
sS'form'
p3539
S'11'
p3540
sS'n-1'
p3541
g9
sS'hexamethylenetetramine'
p3542
g9
sS'cathode'
p3543
g9
sS'volume'
p3544
g32
sS'construction'
p3545
g9
sS'Franklin'
p3546
g9
sS'atom'
p3547
S'39'
p3548
sS'technician'
p3549
g9
sS'line'
p3550
g52
sS'capsid'
p3551
g9
sS'mineral'
p3552
g27
sS'cryo-condition'
p3553
g9
sS'hexachloroplatinate'
p3554
g9
sS'type'
p3555
g54
sS'Von'
p3556
g52
sS'particle'
p3557
g21
sS'planet'
p3558
g9
sS'record'
p3559
g6
sS'Britain'
p3560
g9
sS'exemplar'
p3561
g9
sS'spectroscopy'
p3562
g9
sS'Einstein'
p3563
g9
sS'autocorrelation'
p3564
g52
sS'problem'
p3565
g32
sS'piece'
p3566
g9
sS'motion'
p3567
g6
sS'x-ray'
p3568
S'123'
p3569
sS'Sir'
p3570
g6
sS'ferrocene'
p3571
g9
sS'metal'
p3572
S'10'
p3573
sS'Dr.'
p3574
g9
sS'evidence'
p3575
g9
sS'Bragg'
p3576
S'19'
p3577
sS'reliability'
p3578
g9
sS'file'
p3579
g6
sS'wavelength'
p3580
S'28'
p3581
sS'rotating-anode'
p3582
g9
sS'work'
p3583
g6
sS'Neutron'
p3584
g9
sg353
g6
sS'nm'
p3585
g6
sS'variety'
p3586
g52
sS'Max'
p3587
g32
sS'caco3'
p3588
g9
sS'detail'
p3589
g9
sS'planar'
p3590
g9
sS'Menzer'
p3591
g9
sS'application'
p3592
g32
sS'other'
p3593
g9
sS'b12'
p3594
g9
sS'genome'
p3595
g9
sS'd2o'
p3596
g9
sS'quality'
p3597
g21
sS'photon'
p3598
g21
sS'conclusion'
p3599
g9
sS'deviation'
p3600
g9
sS'picture'
p3601
g6
sS'excitation'
p3602
g32
sS'polymorph'
p3603
g9
sS'time'
p3604
S'11'
p3605
sS'caf2'
p3606
g9
sS'Arnold'
p3607
g9
sS'partiality'
p3608
g9
sS'foil'
p3609
g9
sS'slice'
p3610
g32
sS'nucleus'
p3611
g6
sS'peak'
p3612
g12
sS'Friedel'
p3613
g52
sS'structure'
p3614
S'75'
p3615
sS'inspiration'
p3616
g9
sS'building'
p3617
g6
sS'nanocrystalline'
p3618
g6
sS'Charles'
p3619
g9
sS'diffraction'
p3620
S'56'
p3621
sS'rule'
p3622
g32
sS'mass'
p3623
g9
sS'Filters'
p3624
g9
sS'Year'
p3625
g9
sS'resolution'
p3626
g27
ss.